(dp0
S'Tomato'
p1
(dp2
S'Blue'
p3
(dp4
S'Cartoon'
p5
(dp6
S'Cubic'
p7
(dp8
S'True'
p9
(lp10
VA_Tomato_4
p11
assssS'Yellow'
p12
(dp13
g5
(dp14
g7
(dp15
g9
(lp16
VA_Tomato_2
p17
assssS'Green'
p18
(dp19
g5
(dp20
g7
(dp21
g9
(lp22
VA_Tomato_5
p23
assssS'Orange'
p24
(dp25
g5
(dp26
g7
(dp27
g9
(lp28
VA_Tomato_3
p29
assssS'White'
p30
(dp31
g5
(dp32
g7
(dp33
g9
(lp34
VA_Tomato_1
p35
assssS'Red'
p36
(dp37
g5
(dp38
g7
(dp39
g9
(lp40
VA_Tomato_6
p41
asssssS'Plate'
p42
(dp43
g3
(dp44
S'Ceramic'
p45
(dp46
S'Flat'
p47
(dp48
S'False'
p49
(lp50
VA_Plate_3
p51
asssS'Plastic'
p52
(dp53
g47
(dp54
g49
(lp55
VA_Plate_27
p56
aVA_Plate_28
p57
asssS'Glass'
p58
(dp59
g47
(dp60
g49
(lp61
VA_Plate_182
p62
assssS'Brown'
p63
(dp64
g45
(dp65
g47
(dp66
g49
(lp67
VA_Plate_4
p68
asssg52
(dp69
g47
(dp70
g49
(lp71
VA_Plate_29
p72
asssg58
(dp73
g47
(dp74
g49
(lp75
VA_Plate_14
p76
asssS'Wood'
p77
(dp78
g47
(dp79
g49
(lp80
VA_Plate_39
p81
assssS'Gray'
p82
(dp83
S'Steel'
p84
(dp85
g47
(dp86
g49
(lp87
VA_Plate_24
p88
asssg45
(dp89
g47
(dp90
g49
(lp91
VA_Plate_5
p92
asssg52
(dp93
g47
(dp94
g49
(lp95
VA_Plate_30
p96
asssg77
(dp97
g47
(dp98
g49
(lp99
VA_Plate_40
p100
assssg12
(dp101
g45
(dp102
g47
(dp103
g49
(lp104
VA_Plate_12
p105
asssg52
(dp106
g47
(dp107
g49
(lp108
VA_Plate_37
p109
asssg58
(dp110
g47
(dp111
g49
(lp112
VA_Plate_21
p113
asssg77
(dp114
g47
(dp115
g49
(lp116
VA_Plate_47
p117
assssg18
(dp118
g45
(dp119
g47
(dp120
g49
(lp121
VA_Plate_6
p122
asssg52
(dp123
g47
(dp124
g49
(lp125
VA_Plate_31
p126
asssg58
(dp127
g47
(dp128
g49
(lp129
VA_Plate_15
p130
asssg77
(dp131
g47
(dp132
g49
(lp133
VA_Plate_41
p134
assssS'Pink'
p135
(dp136
g45
(dp137
g47
(dp138
g49
(lp139
VA_Plate_8
p140
asssg52
(dp141
g47
(dp142
g49
(lp143
VA_Plate_32
p144
asssg58
(dp145
g47
(dp146
g49
(lp147
VA_Plate_17
p148
asssg77
(dp149
g47
(dp150
g49
(lp151
VA_Plate_43
p152
assssS'Violet'
p153
(dp154
g45
(dp155
g47
(dp156
g49
(lp157
VA_Plate_10
p158
asssg52
(dp159
g47
(dp160
g49
(lp161
VA_Plate_35
p162
asssg58
(dp163
g47
(dp164
g49
(lp165
VA_Plate_19
p166
asssg77
(dp167
g47
(dp168
g49
(lp169
VA_Plate_45
p170
assssg24
(dp171
g84
(dp172
g47
(dp173
g49
(lp174
VA_Plate_23
p175
asssg45
(dp176
g47
(dp177
g49
(lp178
VA_Plate_7
p179
asssg52
(dp180
g47
(dp181
g49
(lp182
VA_Plate_25
p183
asssg58
(dp184
g47
(dp185
g49
(lp186
VA_Plate_16
p187
asssg77
(dp188
g47
(dp189
g49
(lp190
VA_Plate_42
p191
assssS'Black'
p192
(dp193
g45
(dp194
g47
(dp195
g49
(lp196
VA_Plate_2
p197
asssg52
(dp198
g47
(dp199
g49
(lp200
VA_Plate_26
p201
asssg58
(dp202
g47
(dp203
g49
(lp204
VA_Plate_22
p205
asssg77
(dp206
g47
(dp207
g49
(lp208
VA_Plate_38
p209
assssg30
(dp210
g45
(dp211
g47
(dp212
g49
(lp213
VA_Plate_11
p214
asssg52
(dp215
g47
(dp216
g49
(lp217
VA_Plate_36
p218
asssg58
(dp219
g47
(dp220
g49
(lp221
VA_Plate_20
p222
asssg77
(dp223
g47
(dp224
g49
(lp225
VA_Plate_46
p226
assssg36
(dp227
g45
(dp228
g47
(dp229
g49
(lp230
VA_Plate_55
p231
asssg52
(dp232
g47
(dp233
g49
(lp234
VA_Plate_33
p235
aVA_Plate_34
p236
asssg58
(dp237
g47
(dp238
g49
(lp239
VA_Plate_18
p240
asssg77
(dp241
g47
(dp242
g49
(lp243
VA_Plate_44
p244
asssssS'Coffee'
p245
(dp246
g63
(dp247
g84
(dp248
S'Cylindrical'
p249
(dp250
g9
(lp251
VA_Coffee_Cappuccino_3
p252
aVA_Coffee_Cappuccino_5
p253
asssg5
(dp254
g7
(dp255
g9
(lp256
VA_Coffee_ElBryg_3
p257
assssg82
(dp258
g84
(dp259
g249
(dp260
g9
(lp261
VA_Coffee_Cappuccino_9
p262
assssg18
(dp263
g84
(dp264
g249
(dp265
g9
(lp266
VA_Coffee_Cappuccino_8
p267
asssg5
(dp268
g7
(dp269
g9
(lp270
VA_Coffee_ElBryg_5
p271
assssg192
(dp272
g84
(dp273
g249
(dp274
g9
(lp275
VA_Coffee_Cappuccino_1
p276
aVA_Coffee_Cappuccino_7
p277
asssg5
(dp278
g7
(dp279
g9
(lp280
VA_Coffee_ElBryg_2
p281
assssg30
(dp282
g84
(dp283
g249
(dp284
g9
(lp285
VA_Coffee_Cappuccino_2
p286
asssg5
(dp287
g7
(dp288
g9
(lp289
VA_Coffee_ElBryg_6
p290
assssg36
(dp291
g84
(dp292
g249
(dp293
g9
(lp294
VA_Coffee_Cappuccino_4
p295
aVA_Coffee_Cappuccino_6
p296
asssg5
(dp297
g7
(dp298
g9
(lp299
VA_Coffee_ElBryg_1
p300
aVA_Coffee_ElBryg_4
p301
asssssS'Eggholder'
p302
(dp303
g3
(dp304
g52
(dp305
g7
(dp306
g49
(lp307
VA_EggHolder_3
p308
aVA_EggHolder_4
p309
assssg63
(dp310
g52
(dp311
g7
(dp312
g49
(lp313
VA_EggHolder_5
p314
assssg82
(dp315
g84
(dp316
g7
(dp317
g49
(lp318
VA_EggHolder_14
p319
asssg52
(dp320
g7
(dp321
g49
(lp322
VA_EggHolder_6
p323
assssg18
(dp324
g52
(dp325
g7
(dp326
g49
(lp327
VA_EggHolder_7
p328
assssg135
(dp329
g52
(dp330
g7
(dp331
g49
(lp332
VA_EggHolder_8
p333
assssg153
(dp334
g52
(dp335
g7
(dp336
g49
(lp337
VA_EggHolder_11
p338
assssg24
(dp339
g84
(dp340
g7
(dp341
g49
(lp342
VA_EggHolder_15
p343
asssg52
(dp344
g7
(dp345
g49
(lp346
VA_EggHolder_1
p347
assssg192
(dp348
g52
(dp349
g7
(dp350
g49
(lp351
VA_EggHolder_2
p352
assssg30
(dp353
g52
(dp354
g7
(dp355
g49
(lp356
VA_EggHolder_12
p357
aVA_EggHolder_13
p358
assssg36
(dp359
g52
(dp360
g7
(dp361
g49
(lp362
VA_EggHolder_9
p363
aVA_EggHolder_10
p364
asssssS'Pancake'
p365
(dp366
g30
(dp367
g52
(dp368
g249
(dp369
g9
(lp370
VA_Pancake_1
p371
aVA_Pancake_2
p372
aVA_Pancake_3
p373
aVA_Pancake_4
p374
asssssS'Spatula'
p375
(dp376
g3
(dp377
g52
(dp378
S'Filiform'
p379
(dp380
g49
(lp381
VA_Spatula_3
p382
aVA_Spatula_4
p383
assssg63
(dp384
g52
(dp385
g379
(dp386
g49
(lp387
VA_Spatula_5
p388
assssg82
(dp389
g84
(dp390
g379
(dp391
g49
(lp392
VA_Spatula_14
p393
aVA_Spatula_16
p394
asssg52
(dp395
g379
(dp396
g49
(lp397
VA_Spatula_6
p398
assssg12
(dp399
g52
(dp400
g379
(dp401
g49
(lp402
VA_Spatula_13
p403
assssg18
(dp404
g52
(dp405
g379
(dp406
g49
(lp407
VA_Spatula_7
p408
assssg135
(dp409
g52
(dp410
g379
(dp411
g49
(lp412
VA_Spatula_8
p413
assssg153
(dp414
g52
(dp415
g379
(dp416
g49
(lp417
VA_Spatula_11
p418
assssg24
(dp419
g84
(dp420
g379
(dp421
g49
(lp422
VA_Spatula_15
p423
asssg52
(dp424
g379
(dp425
g49
(lp426
VA_Spatula_1
p427
assssg192
(dp428
g52
(dp429
g379
(dp430
g49
(lp431
VA_Spatula_2
p432
assssg30
(dp433
g52
(dp434
g379
(dp435
g49
(lp436
VA_Spatula_12
p437
assssg36
(dp438
g52
(dp439
g379
(dp440
g49
(lp441
VA_Spatula_9
p442
aVA_Spatula_10
p443
asssssS'Tea'
p444
(dp445
g3
(dp446
g5
(dp447
g7
(dp448
g9
(lp449
VA_Pfanner_Tea_3
p450
aVA_Ice_Tea_1
p451
aVA_Ice_Tea_2
p452
assssg12
(dp453
g5
(dp454
g7
(dp455
g9
(lp456
VA_Pfanner_Tea_4
p457
aVA_Pfanner_Tea_5
p458
assssg18
(dp459
g5
(dp460
g7
(dp461
g9
(lp462
VA_Pfanner_Tea_1
p463
aVA_Pfanner_Tea_2
p464
aVA_Pfanner_Tea_6
p465
aVA_Ice_Tea_4
p466
assssg24
(dp467
g5
(dp468
g7
(dp469
g9
(lp470
VA_Ice_Tea_3
p471
assssg30
(dp472
g5
(dp473
g7
(dp474
g9
(lp475
VA_Pfanner_Tea_9
p476
assssg36
(dp477
g5
(dp478
g7
(dp479
g9
(lp480
VA_Pfanner_Tea_7
p481
aVA_Pfanner_Tea_8
p482
asssssS'Bowl'
p483
(dp484
g3
(dp485
g45
(dp486
S'Conical'
p487
(dp488
g49
(lp489
VA_Bowl_5
p490
asssg52
(dp491
g487
(dp492
g49
(lp493
VA_Bowl_19
p494
aVA_Bowl_22
p495
aVA_Bowl_23
p496
asssg58
(dp497
g487
(dp498
g49
(lp499
VA_Bowl_15
p500
assssg63
(dp501
g45
(dp502
g487
(dp503
g49
(lp504
VA_Bowl_2
p505
asssg52
(dp506
g487
(dp507
g49
(lp508
VA_Bowl_21
p509
asssg58
(dp510
g487
(dp511
g49
(lp512
VA_Bowl_32
p513
asssg77
(dp514
g487
(dp515
g49
(lp516
VA_Bowl_41
p517
assssg82
(dp518
g84
(dp519
g487
(dp520
g49
(lp521
VA_Bowl_42
p522
aVA_Bowl_43
p523
aVA_Bowl_53
p524
asssg45
(dp525
g487
(dp526
g49
(lp527
VA_Bowl_4
p528
asssg52
(dp529
g487
(dp530
g49
(lp531
VA_Bowl_24
p532
asssg77
(dp533
g487
(dp534
g49
(lp535
VA_Bowl_45
p536
assssg12
(dp537
g45
(dp538
g487
(dp539
g49
(lp540
VA_Bowl_13
p541
asssg52
(dp542
g487
(dp543
g49
(lp544
VA_Bowl_31
p545
asssg58
(dp546
g487
(dp547
g49
(lp548
VA_Bowl_40
p549
asssg77
(dp550
g487
(dp551
g49
(lp552
VA_Bowl_52
p553
assssg18
(dp554
g45
(dp555
g487
(dp556
g49
(lp557
VA_Bowl_3
p558
asssg58
(dp559
g487
(dp560
g49
(lp561
VA_Bowl_16
p562
asssg77
(dp563
g487
(dp564
g49
(lp565
VA_Bowl_46
p566
assssg135
(dp567
g45
(dp568
g487
(dp569
g49
(lp570
VA_Bowl_8
p571
asssg52
(dp572
g487
(dp573
g49
(lp574
VA_Bowl_26
p575
asssg58
(dp576
g487
(dp577
g49
(lp578
VA_Bowl_34
p579
asssg77
(dp580
g487
(dp581
g49
(lp582
VA_Bowl_48
p583
assssg153
(dp584
g45
(dp585
g487
(dp586
g49
(lp587
VA_Bowl_9
p588
asssg52
(dp589
g487
(dp590
g49
(lp591
VA_Bowl_29
p592
asssg58
(dp593
g487
(dp594
g49
(lp595
VA_Bowl_36
p596
asssg77
(dp597
g487
(dp598
g49
(lp599
VA_Bowl_50
p600
assssg24
(dp601
g84
(dp602
g487
(dp603
g49
(lp604
VA_Bowl_54
p605
aVA_Bowl_55
p606
aVA_Bowl_56
p607
asssg45
(dp608
g487
(dp609
g49
(lp610
VA_Bowl_6
p611
aVA_Bowl_7
p612
asssg52
(dp613
g487
(dp614
g49
(lp615
VA_Bowl_18
p616
aVA_Bowl_25
p617
asssg58
(dp618
g487
(dp619
g49
(lp620
VA_Bowl_33
p621
asssg77
(dp622
g487
(dp623
g49
(lp624
VA_Bowl_47
p625
assssg192
(dp626
g45
(dp627
g487
(dp628
g49
(lp629
VA_Bowl_1
p630
asssg52
(dp631
g487
(dp632
g49
(lp633
VA_Bowl_20
p634
asssg58
(dp635
g487
(dp636
g49
(lp637
VA_Bowl_14
p638
asssg77
(dp639
g487
(dp640
g49
(lp641
VA_Bowl_44
p642
assssg30
(dp643
g45
(dp644
g487
(dp645
g49
(lp646
VA_Bowl_12
p647
asssg52
(dp648
g487
(dp649
g49
(lp650
VA_Bowl_30
p651
asssg58
(dp652
g487
(dp653
g49
(lp654
VA_Bowl_37
p655
aVA_Bowl_38
p656
aVA_Bowl_39
p657
asssg77
(dp658
g487
(dp659
g49
(lp660
VA_Bowl_51
p661
assssg36
(dp662
g45
(dp663
g487
(dp664
g49
(lp665
VA_Bowl_10
p666
aVA_Bowl_11
p667
asssg52
(dp668
g487
(dp669
g49
(lp670
VA_Bowl_17
p671
aVA_Bowl_27
p672
aVA_Bowl_28
p673
asssg58
(dp674
g487
(dp675
g49
(lp676
VA_Bowl_35
p677
asssg77
(dp678
g487
(dp679
g49
(lp680
VA_Bowl_49
p681
asssssS'Spoon'
p682
(dp683
g3
(dp684
g52
(dp685
g379
(dp686
g49
(lp687
VA_Spoon_3
p688
aVA_Spoon_4
p689
assssg63
(dp690
g52
(dp691
g379
(dp692
g49
(lp693
VA_Spoon_5
p694
assssg82
(dp695
g84
(dp696
g379
(dp697
g49
(lp698
VA_Spoon_14
p699
asssg52
(dp700
g379
(dp701
g49
(lp702
VA_Spoon_6
p703
assssg12
(dp704
g52
(dp705
g379
(dp706
g49
(lp707
VA_Spoon_13
p708
assssg18
(dp709
g52
(dp710
g379
(dp711
g49
(lp712
VA_Spoon_7
p713
assssg135
(dp714
g52
(dp715
g379
(dp716
g49
(lp717
VA_Spoon_8
p718
assssg153
(dp719
g52
(dp720
g379
(dp721
g49
(lp722
VA_Spoon_11
p723
assssg24
(dp724
g84
(dp725
g379
(dp726
g49
(lp727
VA_Spoon_15
p728
asssg52
(dp729
g379
(dp730
g49
(lp731
VA_Spoon_1
p732
assssg192
(dp733
g52
(dp734
g379
(dp735
g49
(lp736
VA_Spoon_2
p737
assssg30
(dp738
g52
(dp739
g379
(dp740
g49
(lp741
VA_Spoon_12
p742
assssg36
(dp743
g52
(dp744
g379
(dp745
g49
(lp746
VA_Spoon_9
p747
aVA_Spoon_10
p748
asssssS'Milk'
p749
(dp750
g3
(dp751
g52
(dp752
g487
(dp753
g9
(lp754
VA_Milch_ReineButter_9
p755
asssg5
(dp756
g7
(dp757
g9
(lp758
VA_Milch_Voll_4
p759
aVA_Milch_Voll_6
p760
aVA_Milch_Voll_7
p761
aVA_Milch_Voll_8
p762
assssg82
(dp763
g52
(dp764
g487
(dp765
g9
(lp766
VA_Milch_ReineButter_8
p767
assssg12
(dp768
g52
(dp769
g487
(dp770
g9
(lp771
VA_Milch_ReineButter_7
p772
assssg18
(dp773
g52
(dp774
g487
(dp775
g9
(lp776
VA_Milch_ReineButter_6
p777
asssg5
(dp778
g7
(dp779
g9
(lp780
VA_Milch_Soja_1
p781
aVA_Milch_Voll_5
p782
assssg135
(dp783
g5
(dp784
g7
(dp785
g9
(lp786
VA_Milch_Voll_1
p787
assssg30
(dp788
g52
(dp789
g487
(dp790
g9
(lp791
VA_Milch_ReineButter_1
p792
aVA_Milch_ReineButter_2
p793
aVA_Milch_ReineButter_3
p794
aVA_Milch_ReineButter_4
p795
aVA_Milch_ReineButter_5
p796
asssg5
(dp797
g7
(dp798
g9
(lp799
VA_Milch_Ja_1
p800
aVA_Milch_Ja_2
p801
aVA_Milch_Ja_3
p802
aVA_Milch_Ja_4
p803
aVA_Milch_Ja_5
p804
aVA_Milch_Ja_6
p805
aVA_Milch_Ja_7
p806
aVA_Milch_Ja_8
p807
aVA_Milch_Ja_9
p808
aVA_Milch_Ja_10
p809
aVA_Milch_Ja_11
p810
aVA_Milch_Voll_3
p811
aVA_Milch_Voll_9
p812
assssg36
(dp813
g52
(dp814
g487
(dp815
g9
(lp816
VA_Milch_ReineButter_10
p817
asssg5
(dp818
g7
(dp819
g9
(lp820
VA_Milch_Voll_2
p821
asssssS'Salt'
p822
(dp823
g3
(dp824
g52
(dp825
g249
(dp826
g9
(lp827
VA_Salz_1
p828
aVA_Salz_2
p829
asssg5
(dp830
g7
(dp831
g9
(lp832
VA_Salz_8
p833
assssg63
(dp834
g52
(dp835
g249
(dp836
g9
(lp837
VA_Salz_4
p838
asssg5
(dp839
g7
(dp840
g9
(lp841
VA_Salz_12
p842
assssg82
(dp843
g5
(dp844
g7
(dp845
g9
(lp846
VA_Salz_15
p847
assssg12
(dp848
g52
(dp849
g249
(dp850
g9
(lp851
VA_Salz_6
p852
asssg5
(dp853
g7
(dp854
g9
(lp855
VA_Salz_7
p856
assssg18
(dp857
g52
(dp858
g249
(dp859
g9
(lp860
VA_Salz_3
p861
asssg5
(dp862
g7
(dp863
g9
(lp864
VA_Salz_9
p865
assssg153
(dp866
g5
(dp867
g7
(dp868
g9
(lp869
VA_Salz_10
p870
assssg24
(dp871
g5
(dp872
g7
(dp873
g9
(lp874
VA_Salz_11
p875
assssg192
(dp876
g5
(dp877
g7
(dp878
g9
(lp879
VA_Salz_14
p880
assssg36
(dp881
g52
(dp882
g249
(dp883
g9
(lp884
VA_Salz_5
p885
asssssS'Juice'
p886
(dp887
g12
(dp888
g5
(dp889
g7
(dp890
g9
(lp891
VA_Albi_Juice_14
p892
assssg18
(dp893
g5
(dp894
g7
(dp895
g9
(lp896
VA_Albi_Juice_1
p897
aVA_Albi_Juice_3
p898
aVA_Albi_Juice_4
p899
aVA_Albi_Juice_5
p900
aVA_Albi_Juice_6
p901
aVA_Albi_Juice_7
p902
aVA_Albi_Juice_8
p903
aVA_Albi_Juice_9
p904
aVA_Albi_Juice_10
p905
aVA_Albi_Juice_11
p906
assssg135
(dp907
g5
(dp908
g7
(dp909
g9
(lp910
VA_Albi_Juice_13
p911
assssg24
(dp912
g5
(dp913
g7
(dp914
g9
(lp915
VA_Albi_Juice_15
p916
assssg192
(dp917
g5
(dp918
g7
(dp919
g9
(lp920
VA_Albi_Juice_2
p921
assssg36
(dp922
g5
(dp923
g7
(dp924
g9
(lp925
VA_Albi_Juice_12
p926
aVA_Albi_Juice_16
p927
asssssS'Mug'
p928
(dp929
g3
(dp930
g45
(dp931
g249
(dp932
g49
(lp933
VA_Mug_2
p934
asssg52
(dp935
g249
(dp936
g49
(lp937
VA_Mug_24
p938
aVA_Mug_25
p939
asssg58
(dp940
g249
(dp941
g49
(lp942
VA_Mug_13
p943
assssg63
(dp944
g45
(dp945
g249
(dp946
g49
(lp947
VA_Mug_3
p948
asssg52
(dp949
g249
(dp950
g49
(lp951
VA_Mug_27
p952
aVA_Mug_33
p953
asssg58
(dp954
g249
(dp955
g49
(lp956
VA_Mug_14
p957
assssg82
(dp958
g84
(dp959
g249
(dp960
g49
(lp961
VA_Mug_37
p962
aVA_Mug_39
p963
asssg45
(dp964
g249
(dp965
g49
(lp966
VA_Mug_4
p967
asssg52
(dp968
g249
(dp969
g49
(lp970
VA_Mug_28
p971
assssg12
(dp972
g45
(dp973
g249
(dp974
g49
(lp975
VA_Mug_11
p976
asssg52
(dp977
g249
(dp978
g49
(lp979
VA_Mug_35
p980
asssg58
(dp981
g249
(dp982
g49
(lp983
VA_Mug_21
p984
assssg18
(dp985
g45
(dp986
g249
(dp987
g49
(lp988
VA_Mug_5
p989
asssg52
(dp990
g249
(dp991
g49
(lp992
VA_Mug_29
p993
asssg58
(dp994
g249
(dp995
g49
(lp996
VA_Mug_16
p997
assssg135
(dp998
g45
(dp999
g249
(dp1000
g49
(lp1001
VA_Mug_7
p1002
asssg52
(dp1003
g249
(dp1004
g49
(lp1005
VA_Mug_30
p1006
asssg58
(dp1007
g249
(dp1008
g49
(lp1009
VA_Mug_19
p1010
assssg153
(dp1011
g45
(dp1012
g249
(dp1013
g49
(lp1014
VA_Mug_8
p1015
asssg52
(dp1016
g249
(dp1017
g49
(lp1018
VA_Mug_34
p1019
asssg58
(dp1020
g249
(dp1021
g49
(lp1022
VA_Mug_17
p1023
assssg24
(dp1024
g84
(dp1025
g249
(dp1026
g49
(lp1027
VA_Mug_38
p1028
aVA_Mug_40
p1029
asssg45
(dp1030
g249
(dp1031
g49
(lp1032
VA_Mug_6
p1033
asssg52
(dp1034
g249
(dp1035
g49
(lp1036
VA_Mug_22
p1037
aVA_Mug_26
p1038
asssg58
(dp1039
g249
(dp1040
g49
(lp1041
VA_Mug_15
p1042
assssg192
(dp1043
g45
(dp1044
g249
(dp1045
g49
(lp1046
VA_Mug_1
p1047
asssg52
(dp1048
g249
(dp1049
g49
(lp1050
VA_Mug_23
p1051
asssg58
(dp1052
g249
(dp1053
g49
(lp1054
VA_Mug_12
p1055
assssg30
(dp1056
g45
(dp1057
g249
(dp1058
g49
(lp1059
VA_Mug_10
p1060
asssg52
(dp1061
g249
(dp1062
g49
(lp1063
VA_Mug_36
p1064
asssg58
(dp1065
g249
(dp1066
g49
(lp1067
VA_Mug_20
p1068
assssg36
(dp1069
g45
(dp1070
g249
(dp1071
g49
(lp1072
VA_Mug_9
p1073
asssg52
(dp1074
g249
(dp1075
g49
(lp1076
VA_Mug_31
p1077
aVA_Mug_32
p1078
asssg58
(dp1079
g249
(dp1080
g49
(lp1081
VA_Mug_18
p1082
asssssS'Cereal'
p1083
(dp1084
g3
(dp1085
g5
(dp1086
g7
(dp1087
g9
(lp1088
VA_Cereal_Nesquik_6
p1089
aVA_Cereal_Nesquik_10
p1090
assssg63
(dp1091
g5
(dp1092
g7
(dp1093
g9
(lp1094
VA_Cereal_Nesquik_7
p1095
assssg12
(dp1096
g5
(dp1097
g7
(dp1098
g9
(lp1099
VA_Cereal_Nesquik_11
p1100
aVA_Cereal_Nesquik_2
p1101
aVA_Cereal_Nesquik_3
p1102
aVA_Cereal_Nesquik_4
p1103
aVA_Cereal_Nesquik_9
p1104
aVA_Cereal_Lion_12
p1105
assssg18
(dp1106
g5
(dp1107
g7
(dp1108
g9
(lp1109
VA_Cereal_Nesquik_8
p1110
assssg30
(dp1111
g5
(dp1112
g7
(dp1113
g9
(lp1114
VA_Cereal_Nesquik_5
p1115
asssssS'Cornflakes'
p1116
(dp1117
g3
(dp1118
g5
(dp1119
g7
(dp1120
g9
(lp1121
VA_CornFlakes_2
p1122
assssg63
(dp1123
g5
(dp1124
g7
(dp1125
g9
(lp1126
VA_CornFlakes_5
p1127
assssg12
(dp1128
g5
(dp1129
g7
(dp1130
g9
(lp1131
VA_CornFlakes_1
p1132
aVA_CornFlakes_3
p1133
assssg135
(dp1134
g5
(dp1135
g7
(dp1136
g9
(lp1137
VA_CornFlakes_4
p1138
assssg30
(dp1139
g5
(dp1140
g7
(dp1141
g9
(lp1142
VA_CornFlakes_6
p1143
asssssS'Muesli'
p1144
(dp1145
g3
(dp1146
g5
(dp1147
g7
(dp1148
g9
(lp1149
VA_Musli_3
p1150
assssg63
(dp1151
g5
(dp1152
g7
(dp1153
g9
(lp1154
VA_Musli_1
p1155
assssg12
(dp1156
g5
(dp1157
g7
(dp1158
g9
(lp1159
VA_Musli_4
p1160
aVA_Musli_6
p1161
assssg135
(dp1162
g5
(dp1163
g7
(dp1164
g9
(lp1165
VA_Musli_5
p1166
assssg36
(dp1167
g5
(dp1168
g7
(dp1169
g9
(lp1170
VA_Musli_7
p1171
asssssS'Rice'
p1172
(dp1173
g3
(dp1174
g5
(dp1175
g7
(dp1176
g9
(lp1177
VA_Reis_Spitzen_1
p1178
assssg12
(dp1179
g5
(dp1180
g7
(dp1181
g9
(lp1182
VA_Reis_Spitzen_2
p1183
assssg18
(dp1184
g5
(dp1185
g7
(dp1186
g9
(lp1187
VA_Reis_Spitzen_3
p1188
assssg153
(dp1189
g5
(dp1190
g7
(dp1191
g9
(lp1192
VA_Reis_Spitzen_4
p1193
assssg30
(dp1194
g5
(dp1195
g7
(dp1196
g9
(lp1197
VA_Reis_Spitzen_6
p1198
assssg36
(dp1199
g5
(dp1200
g7
(dp1201
g9
(lp1202
VA_Reis_Spitzen_5
p1203
asssssS'Tray'
p1204
(dp1205
g63
(dp1206
g77
(dp1207
g47
(dp1208
g49
(lp1209
VA_Tray_1
p1210
assssg82
(dp1211
g84
(dp1212
g47
(dp1213
g49
(lp1214
VA_Tray_325
p1215
asssg77
(dp1216
g47
(dp1217
g49
(lp1218
VA_Tray_4
p1219
assssg12
(dp1220
g77
(dp1221
g47
(dp1222
g49
(lp1223
VA_Tray_2
p1224
aVA_Tray_11
p1225
assssg18
(dp1226
g77
(dp1227
g47
(dp1228
g49
(lp1229
VA_Tray_5
p1230
assssg135
(dp1231
g77
(dp1232
g47
(dp1233
g49
(lp1234
VA_Tray_7
p1235
assssg153
(dp1236
g77
(dp1237
g47
(dp1238
g49
(lp1239
VA_Tray_9
p1240
assssg24
(dp1241
g84
(dp1242
g47
(dp1243
g49
(lp1244
VA_Tray_13
p1245
asssg77
(dp1246
g47
(dp1247
g49
(lp1248
VA_Tray_6
p1249
assssg192
(dp1250
g77
(dp1251
g47
(dp1252
g49
(lp1253
VA_Tray_3
p1254
assssg30
(dp1255
g77
(dp1256
g47
(dp1257
g49
(lp1258
VA_Tray_10
p1259
assssg36
(dp1260
g77
(dp1261
g47
(dp1262
g49
(lp1263
VA_Tray_8
p1264
asssssS'Ketchup'
p1265
(dp1266
g36
(dp1267
g52
(dp1268
g249
(dp1269
g9
(lp1270
VA_Ketchup_1
p1271
aVA_Ketchup_2
p1272
aVA_Ketchup_3
p1273
aVA_Ketchup_4
p1274
aVA_Ketchup_5
p1275
asssssS'Knife'
p1276
(dp1277
g3
(dp1278
g52
(dp1279
g379
(dp1280
g49
(lp1281
VA_Knife_3
p1282
aVA_Knife_4
p1283
assssg63
(dp1284
g52
(dp1285
g379
(dp1286
g49
(lp1287
VA_Knife_5
p1288
assssg82
(dp1289
g84
(dp1290
g379
(dp1291
g49
(lp1292
VA_Knife_14
p1293
asssg52
(dp1294
g379
(dp1295
g49
(lp1296
VA_Knife_6
p1297
assssg12
(dp1298
g52
(dp1299
g379
(dp1300
g49
(lp1301
VA_Knife_13
p1302
assssg18
(dp1303
g52
(dp1304
g379
(dp1305
g49
(lp1306
VA_Knife_7
p1307
assssg135
(dp1308
g52
(dp1309
g379
(dp1310
g49
(lp1311
VA_Knife_8
p1312
assssg153
(dp1313
g52
(dp1314
g379
(dp1315
g49
(lp1316
VA_Knife_11
p1317
assssg24
(dp1318
g84
(dp1319
g379
(dp1320
g49
(lp1321
VA_Knife_15
p1322
asssg52
(dp1323
g379
(dp1324
g49
(lp1325
VA_Knife_1
p1326
assssg192
(dp1327
g52
(dp1328
g379
(dp1329
g49
(lp1330
VA_Knife_2
p1331
assssg30
(dp1332
g52
(dp1333
g379
(dp1334
g49
(lp1335
VA_Knife_12
p1336
assssg36
(dp1337
g52
(dp1338
g379
(dp1339
g49
(lp1340
VA_Knife_9
p1341
aVA_Knife_10
p1342
asssss.