ccopy_reg
_reconstructor
p0
(cTaskManager
ExtendedDatasetLoader
p1
c__builtin__
object
p2
Ntp3
Rp4
(dp5
S'_image_ids'
p6
cnumpy.core.multiarray
_reconstruct
p7
(cnumpy
ndarray
p8
(I0
tp9
S'b'
p10
tp11
Rp12
(I1
(I492
tp13
cnumpy
dtype
p14
(S'i8'
p15
I0
I1
tp16
Rp17
(I3
S'<'
p18
NNNI-1
I-1
I0
tp19
bI00
S'\x00\x00\x00\x00\x00\x00\x00\x00\x01\x00\x00\x00\x00\x00\x00\x00\x02\x00\x00\x00\x00\x00\x00\x00\x03\x00\x00\x00\x00\x00\x00\x00\x04\x00\x00\x00\x00\x00\x00\x00\x05\x00\x00\x00\x00\x00\x00\x00\x06\x00\x00\x00\x00\x00\x00\x00\x07\x00\x00\x00\x00\x00\x00\x00\x08\x00\x00\x00\x00\x00\x00\x00\t\x00\x00\x00\x00\x00\x00\x00\n\x00\x00\x00\x00\x00\x00\x00\x0b\x00\x00\x00\x00\x00\x00\x00\x0c\x00\x00\x00\x00\x00\x00\x00\r\x00\x00\x00\x00\x00\x00\x00\x0e\x00\x00\x00\x00\x00\x00\x00\x0f\x00\x00\x00\x00\x00\x00\x00\x10\x00\x00\x00\x00\x00\x00\x00\x11\x00\x00\x00\x00\x00\x00\x00\x12\x00\x00\x00\x00\x00\x00\x00\x13\x00\x00\x00\x00\x00\x00\x00\x14\x00\x00\x00\x00\x00\x00\x00\x15\x00\x00\x00\x00\x00\x00\x00\x16\x00\x00\x00\x00\x00\x00\x00\x17\x00\x00\x00\x00\x00\x00\x00\x18\x00\x00\x00\x00\x00\x00\x00\x19\x00\x00\x00\x00\x00\x00\x00\x1a\x00\x00\x00\x00\x00\x00\x00\x1b\x00\x00\x00\x00\x00\x00\x00\x1c\x00\x00\x00\x00\x00\x00\x00\x1d\x00\x00\x00\x00\x00\x00\x00\x1e\x00\x00\x00\x00\x00\x00\x00\x1f\x00\x00\x00\x00\x00\x00\x00 \x00\x00\x00\x00\x00\x00\x00!\x00\x00\x00\x00\x00\x00\x00"\x00\x00\x00\x00\x00\x00\x00#\x00\x00\x00\x00\x00\x00\x00$\x00\x00\x00\x00\x00\x00\x00%\x00\x00\x00\x00\x00\x00\x00&\x00\x00\x00\x00\x00\x00\x00\'\x00\x00\x00\x00\x00\x00\x00(\x00\x00\x00\x00\x00\x00\x00)\x00\x00\x00\x00\x00\x00\x00*\x00\x00\x00\x00\x00\x00\x00+\x00\x00\x00\x00\x00\x00\x00,\x00\x00\x00\x00\x00\x00\x00-\x00\x00\x00\x00\x00\x00\x00.\x00\x00\x00\x00\x00\x00\x00/\x00\x00\x00\x00\x00\x00\x000\x00\x00\x00\x00\x00\x00\x001\x00\x00\x00\x00\x00\x00\x002\x00\x00\x00\x00\x00\x00\x003\x00\x00\x00\x00\x00\x00\x004\x00\x00\x00\x00\x00\x00\x005\x00\x00\x00\x00\x00\x00\x006\x00\x00\x00\x00\x00\x00\x007\x00\x00\x00\x00\x00\x00\x008\x00\x00\x00\x00\x00\x00\x009\x00\x00\x00\x00\x00\x00\x00:\x00\x00\x00\x00\x00\x00\x00;\x00\x00\x00\x00\x00\x00\x00<\x00\x00\x00\x00\x00\x00\x00=\x00\x00\x00\x00\x00\x00\x00>\x00\x00\x00\x00\x00\x00\x00?\x00\x00\x00\x00\x00\x00\x00@\x00\x00\x00\x00\x00\x00\x00A\x00\x00\x00\x00\x00\x00\x00B\x00\x00\x00\x00\x00\x00\x00C\x00\x00\x00\x00\x00\x00\x00D\x00\x00\x00\x00\x00\x00\x00E\x00\x00\x00\x00\x00\x00\x00F\x00\x00\x00\x00\x00\x00\x00G\x00\x00\x00\x00\x00\x00\x00H\x00\x00\x00\x00\x00\x00\x00I\x00\x00\x00\x00\x00\x00\x00J\x00\x00\x00\x00\x00\x00\x00K\x00\x00\x00\x00\x00\x00\x00L\x00\x00\x00\x00\x00\x00\x00M\x00\x00\x00\x00\x00\x00\x00N\x00\x00\x00\x00\x00\x00\x00O\x00\x00\x00\x00\x00\x00\x00P\x00\x00\x00\x00\x00\x00\x00Q\x00\x00\x00\x00\x00\x00\x00R\x00\x00\x00\x00\x00\x00\x00S\x00\x00\x00\x00\x00\x00\x00T\x00\x00\x00\x00\x00\x00\x00U\x00\x00\x00\x00\x00\x00\x00V\x00\x00\x00\x00\x00\x00\x00W\x00\x00\x00\x00\x00\x00\x00X\x00\x00\x00\x00\x00\x00\x00Y\x00\x00\x00\x00\x00\x00\x00Z\x00\x00\x00\x00\x00\x00\x00[\x00\x00\x00\x00\x00\x00\x00\\\x00\x00\x00\x00\x00\x00\x00]\x00\x00\x00\x00\x00\x00\x00^\x00\x00\x00\x00\x00\x00\x00_\x00\x00\x00\x00\x00\x00\x00`\x00\x00\x00\x00\x00\x00\x00a\x00\x00\x00\x00\x00\x00\x00b\x00\x00\x00\x00\x00\x00\x00c\x00\x00\x00\x00\x00\x00\x00d\x00\x00\x00\x00\x00\x00\x00e\x00\x00\x00\x00\x00\x00\x00f\x00\x00\x00\x00\x00\x00\x00g\x00\x00\x00\x00\x00\x00\x00h\x00\x00\x00\x00\x00\x00\x00i\x00\x00\x00\x00\x00\x00\x00j\x00\x00\x00\x00\x00\x00\x00k\x00\x00\x00\x00\x00\x00\x00l\x00\x00\x00\x00\x00\x00\x00m\x00\x00\x00\x00\x00\x00\x00n\x00\x00\x00\x00\x00\x00\x00o\x00\x00\x00\x00\x00\x00\x00p\x00\x00\x00\x00\x00\x00\x00q\x00\x00\x00\x00\x00\x00\x00r\x00\x00\x00\x00\x00\x00\x00s\x00\x00\x00\x00\x00\x00\x00t\x00\x00\x00\x00\x00\x00\x00u\x00\x00\x00\x00\x00\x00\x00v\x00\x00\x00\x00\x00\x00\x00w\x00\x00\x00\x00\x00\x00\x00x\x00\x00\x00\x00\x00\x00\x00y\x00\x00\x00\x00\x00\x00\x00z\x00\x00\x00\x00\x00\x00\x00{\x00\x00\x00\x00\x00\x00\x00|\x00\x00\x00\x00\x00\x00\x00}\x00\x00\x00\x00\x00\x00\x00~\x00\x00\x00\x00\x00\x00\x00\x7f\x00\x00\x00\x00\x00\x00\x00\x80\x00\x00\x00\x00\x00\x00\x00\x81\x00\x00\x00\x00\x00\x00\x00\x82\x00\x00\x00\x00\x00\x00\x00\x83\x00\x00\x00\x00\x00\x00\x00\x84\x00\x00\x00\x00\x00\x00\x00\x85\x00\x00\x00\x00\x00\x00\x00\x86\x00\x00\x00\x00\x00\x00\x00\x87\x00\x00\x00\x00\x00\x00\x00\x88\x00\x00\x00\x00\x00\x00\x00\x89\x00\x00\x00\x00\x00\x00\x00\x8a\x00\x00\x00\x00\x00\x00\x00\x8b\x00\x00\x00\x00\x00\x00\x00\x8c\x00\x00\x00\x00\x00\x00\x00\x8d\x00\x00\x00\x00\x00\x00\x00\x8e\x00\x00\x00\x00\x00\x00\x00\x8f\x00\x00\x00\x00\x00\x00\x00\x90\x00\x00\x00\x00\x00\x00\x00\x91\x00\x00\x00\x00\x00\x00\x00\x92\x00\x00\x00\x00\x00\x00\x00\x93\x00\x00\x00\x00\x00\x00\x00\x94\x00\x00\x00\x00\x00\x00\x00\x95\x00\x00\x00\x00\x00\x00\x00\x96\x00\x00\x00\x00\x00\x00\x00\x97\x00\x00\x00\x00\x00\x00\x00\x98\x00\x00\x00\x00\x00\x00\x00\x99\x00\x00\x00\x00\x00\x00\x00\x9a\x00\x00\x00\x00\x00\x00\x00\x9b\x00\x00\x00\x00\x00\x00\x00\x9c\x00\x00\x00\x00\x00\x00\x00\x9d\x00\x00\x00\x00\x00\x00\x00\x9e\x00\x00\x00\x00\x00\x00\x00\x9f\x00\x00\x00\x00\x00\x00\x00\xa0\x00\x00\x00\x00\x00\x00\x00\xa1\x00\x00\x00\x00\x00\x00\x00\xa2\x00\x00\x00\x00\x00\x00\x00\xa3\x00\x00\x00\x00\x00\x00\x00\xa4\x00\x00\x00\x00\x00\x00\x00\xa5\x00\x00\x00\x00\x00\x00\x00\xa6\x00\x00\x00\x00\x00\x00\x00\xa7\x00\x00\x00\x00\x00\x00\x00\xa8\x00\x00\x00\x00\x00\x00\x00\xa9\x00\x00\x00\x00\x00\x00\x00\xaa\x00\x00\x00\x00\x00\x00\x00\xab\x00\x00\x00\x00\x00\x00\x00\xac\x00\x00\x00\x00\x00\x00\x00\xad\x00\x00\x00\x00\x00\x00\x00\xae\x00\x00\x00\x00\x00\x00\x00\xaf\x00\x00\x00\x00\x00\x00\x00\xb0\x00\x00\x00\x00\x00\x00\x00\xb1\x00\x00\x00\x00\x00\x00\x00\xb2\x00\x00\x00\x00\x00\x00\x00\xb3\x00\x00\x00\x00\x00\x00\x00\xb4\x00\x00\x00\x00\x00\x00\x00\xb5\x00\x00\x00\x00\x00\x00\x00\xb6\x00\x00\x00\x00\x00\x00\x00\xb7\x00\x00\x00\x00\x00\x00\x00\xb8\x00\x00\x00\x00\x00\x00\x00\xb9\x00\x00\x00\x00\x00\x00\x00\xba\x00\x00\x00\x00\x00\x00\x00\xbb\x00\x00\x00\x00\x00\x00\x00\xbc\x00\x00\x00\x00\x00\x00\x00\xbd\x00\x00\x00\x00\x00\x00\x00\xbe\x00\x00\x00\x00\x00\x00\x00\xbf\x00\x00\x00\x00\x00\x00\x00\xc0\x00\x00\x00\x00\x00\x00\x00\xc1\x00\x00\x00\x00\x00\x00\x00\xc2\x00\x00\x00\x00\x00\x00\x00\xc3\x00\x00\x00\x00\x00\x00\x00\xc4\x00\x00\x00\x00\x00\x00\x00\xc5\x00\x00\x00\x00\x00\x00\x00\xc6\x00\x00\x00\x00\x00\x00\x00\xc7\x00\x00\x00\x00\x00\x00\x00\xc8\x00\x00\x00\x00\x00\x00\x00\xc9\x00\x00\x00\x00\x00\x00\x00\xca\x00\x00\x00\x00\x00\x00\x00\xcb\x00\x00\x00\x00\x00\x00\x00\xcc\x00\x00\x00\x00\x00\x00\x00\xcd\x00\x00\x00\x00\x00\x00\x00\xce\x00\x00\x00\x00\x00\x00\x00\xcf\x00\x00\x00\x00\x00\x00\x00\xd0\x00\x00\x00\x00\x00\x00\x00\xd1\x00\x00\x00\x00\x00\x00\x00\xd2\x00\x00\x00\x00\x00\x00\x00\xd3\x00\x00\x00\x00\x00\x00\x00\xd4\x00\x00\x00\x00\x00\x00\x00\xd5\x00\x00\x00\x00\x00\x00\x00\xd6\x00\x00\x00\x00\x00\x00\x00\xd7\x00\x00\x00\x00\x00\x00\x00\xd8\x00\x00\x00\x00\x00\x00\x00\xd9\x00\x00\x00\x00\x00\x00\x00\xda\x00\x00\x00\x00\x00\x00\x00\xdb\x00\x00\x00\x00\x00\x00\x00\xdc\x00\x00\x00\x00\x00\x00\x00\xdd\x00\x00\x00\x00\x00\x00\x00\xde\x00\x00\x00\x00\x00\x00\x00\xdf\x00\x00\x00\x00\x00\x00\x00\xe0\x00\x00\x00\x00\x00\x00\x00\xe1\x00\x00\x00\x00\x00\x00\x00\xe2\x00\x00\x00\x00\x00\x00\x00\xe3\x00\x00\x00\x00\x00\x00\x00\xe4\x00\x00\x00\x00\x00\x00\x00\xe5\x00\x00\x00\x00\x00\x00\x00\xe6\x00\x00\x00\x00\x00\x00\x00\xe7\x00\x00\x00\x00\x00\x00\x00\xe8\x00\x00\x00\x00\x00\x00\x00\xe9\x00\x00\x00\x00\x00\x00\x00\xea\x00\x00\x00\x00\x00\x00\x00\xeb\x00\x00\x00\x00\x00\x00\x00\xec\x00\x00\x00\x00\x00\x00\x00\xed\x00\x00\x00\x00\x00\x00\x00\xee\x00\x00\x00\x00\x00\x00\x00\xef\x00\x00\x00\x00\x00\x00\x00\xf0\x00\x00\x00\x00\x00\x00\x00\xf1\x00\x00\x00\x00\x00\x00\x00\xf2\x00\x00\x00\x00\x00\x00\x00\xf3\x00\x00\x00\x00\x00\x00\x00\xf4\x00\x00\x00\x00\x00\x00\x00\xf5\x00\x00\x00\x00\x00\x00\x00\xf6\x00\x00\x00\x00\x00\x00\x00\xf7\x00\x00\x00\x00\x00\x00\x00\xf8\x00\x00\x00\x00\x00\x00\x00\xf9\x00\x00\x00\x00\x00\x00\x00\xfa\x00\x00\x00\x00\x00\x00\x00\xfb\x00\x00\x00\x00\x00\x00\x00\xfc\x00\x00\x00\x00\x00\x00\x00\xfd\x00\x00\x00\x00\x00\x00\x00\xfe\x00\x00\x00\x00\x00\x00\x00\xff\x00\x00\x00\x00\x00\x00\x00\x00\x01\x00\x00\x00\x00\x00\x00\x01\x01\x00\x00\x00\x00\x00\x00\x02\x01\x00\x00\x00\x00\x00\x00\x03\x01\x00\x00\x00\x00\x00\x00\x04\x01\x00\x00\x00\x00\x00\x00\x05\x01\x00\x00\x00\x00\x00\x00\x06\x01\x00\x00\x00\x00\x00\x00\x07\x01\x00\x00\x00\x00\x00\x00\x08\x01\x00\x00\x00\x00\x00\x00\t\x01\x00\x00\x00\x00\x00\x00\n\x01\x00\x00\x00\x00\x00\x00\x0b\x01\x00\x00\x00\x00\x00\x00\x0c\x01\x00\x00\x00\x00\x00\x00\r\x01\x00\x00\x00\x00\x00\x00\x0e\x01\x00\x00\x00\x00\x00\x00\x0f\x01\x00\x00\x00\x00\x00\x00\x10\x01\x00\x00\x00\x00\x00\x00\x11\x01\x00\x00\x00\x00\x00\x00\x12\x01\x00\x00\x00\x00\x00\x00\x13\x01\x00\x00\x00\x00\x00\x00\x14\x01\x00\x00\x00\x00\x00\x00\x15\x01\x00\x00\x00\x00\x00\x00\x16\x01\x00\x00\x00\x00\x00\x00\x17\x01\x00\x00\x00\x00\x00\x00\x18\x01\x00\x00\x00\x00\x00\x00\x19\x01\x00\x00\x00\x00\x00\x00\x1a\x01\x00\x00\x00\x00\x00\x00\x1b\x01\x00\x00\x00\x00\x00\x00\x1c\x01\x00\x00\x00\x00\x00\x00\x1d\x01\x00\x00\x00\x00\x00\x00\x1e\x01\x00\x00\x00\x00\x00\x00\x1f\x01\x00\x00\x00\x00\x00\x00 \x01\x00\x00\x00\x00\x00\x00!\x01\x00\x00\x00\x00\x00\x00"\x01\x00\x00\x00\x00\x00\x00#\x01\x00\x00\x00\x00\x00\x00$\x01\x00\x00\x00\x00\x00\x00%\x01\x00\x00\x00\x00\x00\x00&\x01\x00\x00\x00\x00\x00\x00\'\x01\x00\x00\x00\x00\x00\x00(\x01\x00\x00\x00\x00\x00\x00)\x01\x00\x00\x00\x00\x00\x00*\x01\x00\x00\x00\x00\x00\x00+\x01\x00\x00\x00\x00\x00\x00,\x01\x00\x00\x00\x00\x00\x00-\x01\x00\x00\x00\x00\x00\x00.\x01\x00\x00\x00\x00\x00\x00/\x01\x00\x00\x00\x00\x00\x000\x01\x00\x00\x00\x00\x00\x001\x01\x00\x00\x00\x00\x00\x002\x01\x00\x00\x00\x00\x00\x003\x01\x00\x00\x00\x00\x00\x004\x01\x00\x00\x00\x00\x00\x005\x01\x00\x00\x00\x00\x00\x006\x01\x00\x00\x00\x00\x00\x007\x01\x00\x00\x00\x00\x00\x008\x01\x00\x00\x00\x00\x00\x009\x01\x00\x00\x00\x00\x00\x00:\x01\x00\x00\x00\x00\x00\x00;\x01\x00\x00\x00\x00\x00\x00<\x01\x00\x00\x00\x00\x00\x00=\x01\x00\x00\x00\x00\x00\x00>\x01\x00\x00\x00\x00\x00\x00?\x01\x00\x00\x00\x00\x00\x00@\x01\x00\x00\x00\x00\x00\x00A\x01\x00\x00\x00\x00\x00\x00B\x01\x00\x00\x00\x00\x00\x00C\x01\x00\x00\x00\x00\x00\x00D\x01\x00\x00\x00\x00\x00\x00E\x01\x00\x00\x00\x00\x00\x00F\x01\x00\x00\x00\x00\x00\x00G\x01\x00\x00\x00\x00\x00\x00H\x01\x00\x00\x00\x00\x00\x00I\x01\x00\x00\x00\x00\x00\x00J\x01\x00\x00\x00\x00\x00\x00K\x01\x00\x00\x00\x00\x00\x00L\x01\x00\x00\x00\x00\x00\x00M\x01\x00\x00\x00\x00\x00\x00N\x01\x00\x00\x00\x00\x00\x00O\x01\x00\x00\x00\x00\x00\x00P\x01\x00\x00\x00\x00\x00\x00Q\x01\x00\x00\x00\x00\x00\x00R\x01\x00\x00\x00\x00\x00\x00S\x01\x00\x00\x00\x00\x00\x00T\x01\x00\x00\x00\x00\x00\x00U\x01\x00\x00\x00\x00\x00\x00V\x01\x00\x00\x00\x00\x00\x00W\x01\x00\x00\x00\x00\x00\x00X\x01\x00\x00\x00\x00\x00\x00Y\x01\x00\x00\x00\x00\x00\x00Z\x01\x00\x00\x00\x00\x00\x00[\x01\x00\x00\x00\x00\x00\x00\\\x01\x00\x00\x00\x00\x00\x00]\x01\x00\x00\x00\x00\x00\x00^\x01\x00\x00\x00\x00\x00\x00_\x01\x00\x00\x00\x00\x00\x00`\x01\x00\x00\x00\x00\x00\x00a\x01\x00\x00\x00\x00\x00\x00b\x01\x00\x00\x00\x00\x00\x00c\x01\x00\x00\x00\x00\x00\x00d\x01\x00\x00\x00\x00\x00\x00e\x01\x00\x00\x00\x00\x00\x00f\x01\x00\x00\x00\x00\x00\x00g\x01\x00\x00\x00\x00\x00\x00h\x01\x00\x00\x00\x00\x00\x00i\x01\x00\x00\x00\x00\x00\x00j\x01\x00\x00\x00\x00\x00\x00k\x01\x00\x00\x00\x00\x00\x00l\x01\x00\x00\x00\x00\x00\x00m\x01\x00\x00\x00\x00\x00\x00n\x01\x00\x00\x00\x00\x00\x00o\x01\x00\x00\x00\x00\x00\x00p\x01\x00\x00\x00\x00\x00\x00q\x01\x00\x00\x00\x00\x00\x00r\x01\x00\x00\x00\x00\x00\x00s\x01\x00\x00\x00\x00\x00\x00t\x01\x00\x00\x00\x00\x00\x00u\x01\x00\x00\x00\x00\x00\x00v\x01\x00\x00\x00\x00\x00\x00w\x01\x00\x00\x00\x00\x00\x00x\x01\x00\x00\x00\x00\x00\x00y\x01\x00\x00\x00\x00\x00\x00z\x01\x00\x00\x00\x00\x00\x00{\x01\x00\x00\x00\x00\x00\x00|\x01\x00\x00\x00\x00\x00\x00}\x01\x00\x00\x00\x00\x00\x00~\x01\x00\x00\x00\x00\x00\x00\x7f\x01\x00\x00\x00\x00\x00\x00\x80\x01\x00\x00\x00\x00\x00\x00\x81\x01\x00\x00\x00\x00\x00\x00\x82\x01\x00\x00\x00\x00\x00\x00\x83\x01\x00\x00\x00\x00\x00\x00\x84\x01\x00\x00\x00\x00\x00\x00\x85\x01\x00\x00\x00\x00\x00\x00\x86\x01\x00\x00\x00\x00\x00\x00\x87\x01\x00\x00\x00\x00\x00\x00\x88\x01\x00\x00\x00\x00\x00\x00\x89\x01\x00\x00\x00\x00\x00\x00\x8a\x01\x00\x00\x00\x00\x00\x00\x8b\x01\x00\x00\x00\x00\x00\x00\x8c\x01\x00\x00\x00\x00\x00\x00\x8d\x01\x00\x00\x00\x00\x00\x00\x8e\x01\x00\x00\x00\x00\x00\x00\x8f\x01\x00\x00\x00\x00\x00\x00\x90\x01\x00\x00\x00\x00\x00\x00\x91\x01\x00\x00\x00\x00\x00\x00\x92\x01\x00\x00\x00\x00\x00\x00\x93\x01\x00\x00\x00\x00\x00\x00\x94\x01\x00\x00\x00\x00\x00\x00\x95\x01\x00\x00\x00\x00\x00\x00\x96\x01\x00\x00\x00\x00\x00\x00\x97\x01\x00\x00\x00\x00\x00\x00\x98\x01\x00\x00\x00\x00\x00\x00\x99\x01\x00\x00\x00\x00\x00\x00\x9a\x01\x00\x00\x00\x00\x00\x00\x9b\x01\x00\x00\x00\x00\x00\x00\x9c\x01\x00\x00\x00\x00\x00\x00\x9d\x01\x00\x00\x00\x00\x00\x00\x9e\x01\x00\x00\x00\x00\x00\x00\x9f\x01\x00\x00\x00\x00\x00\x00\xa0\x01\x00\x00\x00\x00\x00\x00\xa1\x01\x00\x00\x00\x00\x00\x00\xa2\x01\x00\x00\x00\x00\x00\x00\xa3\x01\x00\x00\x00\x00\x00\x00\xa4\x01\x00\x00\x00\x00\x00\x00\xa5\x01\x00\x00\x00\x00\x00\x00\xa6\x01\x00\x00\x00\x00\x00\x00\xa7\x01\x00\x00\x00\x00\x00\x00\xa8\x01\x00\x00\x00\x00\x00\x00\xa9\x01\x00\x00\x00\x00\x00\x00\xaa\x01\x00\x00\x00\x00\x00\x00\xab\x01\x00\x00\x00\x00\x00\x00\xac\x01\x00\x00\x00\x00\x00\x00\xad\x01\x00\x00\x00\x00\x00\x00\xae\x01\x00\x00\x00\x00\x00\x00\xaf\x01\x00\x00\x00\x00\x00\x00\xb0\x01\x00\x00\x00\x00\x00\x00\xb1\x01\x00\x00\x00\x00\x00\x00\xb2\x01\x00\x00\x00\x00\x00\x00\xb3\x01\x00\x00\x00\x00\x00\x00\xb4\x01\x00\x00\x00\x00\x00\x00\xb5\x01\x00\x00\x00\x00\x00\x00\xb6\x01\x00\x00\x00\x00\x00\x00\xb7\x01\x00\x00\x00\x00\x00\x00\xb8\x01\x00\x00\x00\x00\x00\x00\xb9\x01\x00\x00\x00\x00\x00\x00\xba\x01\x00\x00\x00\x00\x00\x00\xbb\x01\x00\x00\x00\x00\x00\x00\xbc\x01\x00\x00\x00\x00\x00\x00\xbd\x01\x00\x00\x00\x00\x00\x00\xbe\x01\x00\x00\x00\x00\x00\x00\xbf\x01\x00\x00\x00\x00\x00\x00\xc0\x01\x00\x00\x00\x00\x00\x00\xc1\x01\x00\x00\x00\x00\x00\x00\xc2\x01\x00\x00\x00\x00\x00\x00\xc3\x01\x00\x00\x00\x00\x00\x00\xc4\x01\x00\x00\x00\x00\x00\x00\xc5\x01\x00\x00\x00\x00\x00\x00\xc6\x01\x00\x00\x00\x00\x00\x00\xc7\x01\x00\x00\x00\x00\x00\x00\xc8\x01\x00\x00\x00\x00\x00\x00\xc9\x01\x00\x00\x00\x00\x00\x00\xca\x01\x00\x00\x00\x00\x00\x00\xcb\x01\x00\x00\x00\x00\x00\x00\xcc\x01\x00\x00\x00\x00\x00\x00\xcd\x01\x00\x00\x00\x00\x00\x00\xce\x01\x00\x00\x00\x00\x00\x00\xcf\x01\x00\x00\x00\x00\x00\x00\xd0\x01\x00\x00\x00\x00\x00\x00\xd1\x01\x00\x00\x00\x00\x00\x00\xd2\x01\x00\x00\x00\x00\x00\x00\xd3\x01\x00\x00\x00\x00\x00\x00\xd4\x01\x00\x00\x00\x00\x00\x00\xd5\x01\x00\x00\x00\x00\x00\x00\xd6\x01\x00\x00\x00\x00\x00\x00\xd7\x01\x00\x00\x00\x00\x00\x00\xd8\x01\x00\x00\x00\x00\x00\x00\xd9\x01\x00\x00\x00\x00\x00\x00\xda\x01\x00\x00\x00\x00\x00\x00\xdb\x01\x00\x00\x00\x00\x00\x00\xdc\x01\x00\x00\x00\x00\x00\x00\xdd\x01\x00\x00\x00\x00\x00\x00\xde\x01\x00\x00\x00\x00\x00\x00\xdf\x01\x00\x00\x00\x00\x00\x00\xe0\x01\x00\x00\x00\x00\x00\x00\xe1\x01\x00\x00\x00\x00\x00\x00\xe2\x01\x00\x00\x00\x00\x00\x00\xe3\x01\x00\x00\x00\x00\x00\x00\xe4\x01\x00\x00\x00\x00\x00\x00\xe5\x01\x00\x00\x00\x00\x00\x00\xe6\x01\x00\x00\x00\x00\x00\x00\xe7\x01\x00\x00\x00\x00\x00\x00\xe8\x01\x00\x00\x00\x00\x00\x00\xe9\x01\x00\x00\x00\x00\x00\x00\xea\x01\x00\x00\x00\x00\x00\x00\xeb\x01\x00\x00\x00\x00\x00\x00'
p20
tp21
bsS'num_images'
p22
I50630
sS'class_info'
p23
(lp24
(lp25
(dp26
S'source'
p27
S''
p28
sS'id'
p29
I0
sS'name'
p30
S'BG'
p31
sa(dp32
g27
S'robotVQA'
p33
sg29
I1
sg30
VSpoon
p34
sa(dp35
g27
g33
sg29
I2
sg30
VKnife
p36
sa(dp37
g27
g33
sg29
I3
sg30
VPlate
p38
sa(dp39
g27
g33
sg29
I4
sg30
VBowl
p40
sa(dp41
g27
g33
sg29
I5
sg30
VMilk
p42
sa(dp43
g27
g33
sg29
I6
sg30
VCereal
p44
sa(dp45
g27
g33
sg29
I7
sg30
VSalt
p46
sa(dp47
g27
g33
sg29
I8
sg30
VMug
p48
sa(dp49
g27
g33
sg29
I9
sg30
VTea
p50
sa(dp51
g27
g33
sg29
I10
sg30
VTray
p52
sa(dp53
g27
g33
sg29
I11
sg30
VJuice
p54
sa(dp55
g27
g33
sg29
I12
sg30
VRice
p56
sa(dp57
g27
g33
sg29
I13
sg30
VSpatula
p58
sa(dp59
g27
g33
sg29
I14
sg30
VTomato
p60
sa(dp61
g27
g33
sg29
I15
sg30
VMuesli
p62
sa(dp63
g27
g33
sg29
I16
sg30
VCornflakes
p64
sa(dp65
g27
g33
sg29
I17
sg30
VKetchup
p66
sa(dp67
g27
g33
sg29
I18
sg30
VPancake
p68
sa(dp69
g27
g33
sg29
I19
sg30
VCoffee
p70
sa(dp71
g27
g33
sg29
I20
sg30
VEggholder
p72
saa(lp73
(dp74
g27
g28
sg29
I0
sg30
g31
sa(dp75
g27
g33
sg29
I1
sg30
VWhite
p76
sa(dp77
g27
g33
sg29
I2
sg30
VBlue
p78
sa(dp79
g27
g33
sg29
I3
sg30
VYellow
p80
sa(dp81
g27
g33
sg29
I4
sg30
VRed
p82
sa(dp83
g27
g33
sg29
I5
sg30
VBrown
p84
sa(dp85
g27
g33
sg29
I6
sg30
VOrange
p86
sa(dp87
g27
g33
sg29
I7
sg30
VGreen
p88
sa(dp89
g27
g33
sg29
I8
sg30
VBlack
p90
sa(dp91
g27
g33
sg29
I9
sg30
VPink
p92
sa(dp93
g27
g33
sg29
I10
sg30
VGray
p94
sa(dp95
g27
g33
sg29
I11
sg30
VViolet
p96
saa(lp97
(dp98
g27
g28
sg29
I0
sg30
g31
sa(dp99
g27
g33
sg29
I1
sg30
VFiliform
p100
sa(dp101
g27
g33
sg29
I2
sg30
VFlat
p102
sa(dp103
g27
g33
sg29
I3
sg30
VConical
p104
sa(dp105
g27
g33
sg29
I4
sg30
VCubic
p106
sa(dp107
g27
g33
sg29
I5
sg30
VCylindrical
p108
saa(lp109
(dp110
g27
g28
sg29
I0
sg30
g31
sa(dp111
g27
g33
sg29
I1
sg30
VPlastic
p112
sa(dp113
g27
g33
sg29
I2
sg30
VWood
p114
sa(dp115
g27
g33
sg29
I3
sg30
VGlass
p116
sa(dp117
g27
g33
sg29
I4
sg30
VCartoon
p118
sa(dp119
g27
g33
sg29
I5
sg30
VCeramic
p120
sa(dp121
g27
g33
sg29
I6
sg30
VSteel
p122
saa(lp123
(dp124
g27
g28
sg29
I0
sg30
g31
sa(dp125
g27
g33
sg29
I1
sg30
S'Non-Openable'
p126
sa(dp127
g27
g33
sg29
I2
sg30
S'Openable'
p128
saa(lp129
(dp130
g27
g28
sg29
I0
sg30
g31
sa(dp131
g27
g33
sg29
I1
sg30
S'Front'
p132
sa(dp133
g27
g33
sg29
I2
sg30
S'On'
p134
sa(dp135
g27
g33
sg29
I3
sg30
S'In'
p136
sa(dp137
g27
g33
sg29
I4
sg30
S'Left'
p138
saa(lp139
(dp140
g27
g28
sg29
I0
sg30
g31
sa(dp141
g27
g33
sg29
I1
sg30
S'LeftRight'
p142
sa(dp143
g27
g33
sg29
I2
sg30
S'FrontBehind'
p144
sa(dp145
g27
g33
sg29
I3
sg30
S'OnIn'
p146
saasS'source_class_ids'
p147
(lp148
(dp149
g28
(lp150
I0
asg33
(lp151
I0
aI1
aI2
aI3
aI4
aI5
aI6
aI7
aI8
aI9
aI10
aI11
aI12
aI13
aI14
aI15
aI16
aI17
aI18
aI19
aI20
asa(dp152
g28
(lp153
I0
asg33
(lp154
I0
aI1
aI2
aI3
aI4
aI5
aI6
aI7
aI8
aI9
aI10
aI11
asa(dp155
g28
(lp156
I0
asg33
(lp157
I0
aI1
aI2
aI3
aI4
aI5
asa(dp158
g28
(lp159
I0
asg33
(lp160
I0
aI1
aI2
aI3
aI4
aI5
aI6
asa(dp161
g28
(lp162
I0
asg33
(lp163
I0
aI1
aI2
asa(dp164
g28
(lp165
I0
asg33
(lp166
I0
aI1
aI2
aI3
aI4
asa(dp167
g28
(lp168
I0
asg33
(lp169
I0
aI1
aI2
aI3
asasS'sources'
p170
(lp171
(lp172
g28
ag33
aa(lp173
g28
ag33
aa(lp174
g28
ag33
aa(lp175
g28
ag33
aa(lp176
g28
ag33
aa(lp177
g28
ag33
aa(lp178
g28
ag33
aasS'class_names'
p179
(lp180
(lp181
g31
ag34
ag36
ag38
ag40
ag42
ag44
ag46
ag48
ag50
ag52
ag54
ag56
ag58
ag60
ag62
ag64
ag66
ag68
ag70
ag72
aa(lp182
g31
ag76
ag78
ag80
ag82
ag84
ag86
ag88
ag90
ag92
ag94
ag96
aa(lp183
g31
ag100
ag102
ag104
ag106
ag108
aa(lp184
g31
ag112
ag114
ag116
ag118
ag120
ag122
aa(lp185
g31
ag126
ag128
aa(lp186
g31
ag132
ag134
ag136
ag138
aa(lp187
g31
ag142
ag144
ag146
aasS'image_info'
p188
(lp189
(dp190
S'source'
p191
S'robotVQA'
p192
sS'shape'
p193
(I480
I640
I3
tp194
sS'path'
p195
S'/mnt/Datadisk/franklin/test/realtestdataset/litImage387.jpg'
p196
sS'depthPath'
p197
S'/mnt/Datadisk/franklin/test/realtestdataset/depthImage387.jpg'
p198
sS'annotPath'
p199
S'/mnt/Datadisk/franklin/test/realtestdataset/annotation387.json'
p200
sS'id'
p201
I0
sS'dataFolder'
p202
S'/mnt/Datadisk/franklin/test/realtestdataset'
p203
sa(dp204
g191
g192
sg193
(I480
I640
I3
tp205
sg195
S'/mnt/Datadisk/franklin/test/realtestdataset/litImage327.jpg'
p206
sg197
S'/mnt/Datadisk/franklin/test/realtestdataset/depthImage327.jpg'
p207
sg199
S'/mnt/Datadisk/franklin/test/realtestdataset/annotation327.json'
p208
sg201
I1
sg202
g203
sa(dp209
g191
g192
sg193
(I480
I640
I3
tp210
sg195
S'/mnt/Datadisk/franklin/test/realtestdataset/litImage69.jpg'
p211
sg197
S'/mnt/Datadisk/franklin/test/realtestdataset/depthImage69.jpg'
p212
sg199
S'/mnt/Datadisk/franklin/test/realtestdataset/annotation69.json'
p213
sg201
I2
sg202
g203
sa(dp214
g191
g192
sg193
(I480
I640
I3
tp215
sg195
S'/mnt/Datadisk/franklin/test/realtestdataset/litImage223.jpg'
p216
sg197
S'/mnt/Datadisk/franklin/test/realtestdataset/depthImage223.jpg'
p217
sg199
S'/mnt/Datadisk/franklin/test/realtestdataset/annotation223.json'
p218
sg201
I3
sg202
g203
sa(dp219
g191
g192
sg193
(I480
I640
I3
tp220
sg195
S'/mnt/Datadisk/franklin/test/realtestdataset/litImage397.jpg'
p221
sg197
S'/mnt/Datadisk/franklin/test/realtestdataset/depthImage397.jpg'
p222
sg199
S'/mnt/Datadisk/franklin/test/realtestdataset/annotation397.json'
p223
sg201
I4
sg202
g203
sa(dp224
g191
g192
sg193
(I480
I640
I3
tp225
sg195
S'/mnt/Datadisk/franklin/test/realtestdataset/litImage239.jpg'
p226
sg197
S'/mnt/Datadisk/franklin/test/realtestdataset/depthImage239.jpg'
p227
sg199
S'/mnt/Datadisk/franklin/test/realtestdataset/annotation239.json'
p228
sg201
I5
sg202
g203
sa(dp229
g191
g192
sg193
(I480
I640
I3
tp230
sg195
S'/mnt/Datadisk/franklin/test/realtestdataset/litImage425.jpg'
p231
sg197
S'/mnt/Datadisk/franklin/test/realtestdataset/depthImage425.jpg'
p232
sg199
S'/mnt/Datadisk/franklin/test/realtestdataset/annotation425.json'
p233
sg201
I6
sg202
g203
sa(dp234
g191
g192
sg193
(I480
I640
I3
tp235
sg195
S'/mnt/Datadisk/franklin/test/realtestdataset/litImage323.jpg'
p236
sg197
S'/mnt/Datadisk/franklin/test/realtestdataset/depthImage323.jpg'
p237
sg199
S'/mnt/Datadisk/franklin/test/realtestdataset/annotation323.json'
p238
sg201
I7
sg202
g203
sa(dp239
g191
g192
sg193
(I480
I640
I3
tp240
sg195
S'/mnt/Datadisk/franklin/test/realtestdataset/litImage103.jpg'
p241
sg197
S'/mnt/Datadisk/franklin/test/realtestdataset/depthImage103.jpg'
p242
sg199
S'/mnt/Datadisk/franklin/test/realtestdataset/annotation103.json'
p243
sg201
I8
sg202
g203
sa(dp244
g191
g192
sg193
(I480
I640
I3
tp245
sg195
S'/mnt/Datadisk/franklin/test/realtestdataset/litImage17.jpg'
p246
sg197
S'/mnt/Datadisk/franklin/test/realtestdataset/depthImage17.jpg'
p247
sg199
S'/mnt/Datadisk/franklin/test/realtestdataset/annotation17.json'
p248
sg201
I9
sg202
g203
sa(dp249
g191
g192
sg193
(I480
I640
I3
tp250
sg195
S'/mnt/Datadisk/franklin/test/realtestdataset/litImage33.jpg'
p251
sg197
S'/mnt/Datadisk/franklin/test/realtestdataset/depthImage33.jpg'
p252
sg199
S'/mnt/Datadisk/franklin/test/realtestdataset/annotation33.json'
p253
sg201
I10
sg202
g203
sa(dp254
g191
g192
sg193
(I480
I640
I3
tp255
sg195
S'/mnt/Datadisk/franklin/test/realtestdataset/litImage215.jpg'
p256
sg197
S'/mnt/Datadisk/franklin/test/realtestdataset/depthImage215.jpg'
p257
sg199
S'/mnt/Datadisk/franklin/test/realtestdataset/annotation215.json'
p258
sg201
I11
sg202
g203
sa(dp259
g191
g192
sg193
(I480
I640
I3
tp260
sg195
S'/mnt/Datadisk/franklin/test/realtestdataset/litImage24.jpg'
p261
sg197
S'/mnt/Datadisk/franklin/test/realtestdataset/depthImage24.jpg'
p262
sg199
S'/mnt/Datadisk/franklin/test/realtestdataset/annotation24.json'
p263
sg201
I12
sg202
g203
sa(dp264
g191
g192
sg193
(I480
I640
I3
tp265
sg195
S'/mnt/Datadisk/franklin/test/realtestdataset/litImage61.jpg'
p266
sg197
S'/mnt/Datadisk/franklin/test/realtestdataset/depthImage61.jpg'
p267
sg199
S'/mnt/Datadisk/franklin/test/realtestdataset/annotation61.json'
p268
sg201
I13
sg202
g203
sa(dp269
g191
g192
sg193
(I480
I640
I3
tp270
sg195
S'/mnt/Datadisk/franklin/test/realtestdataset/litImage452.jpg'
p271
sg197
S'/mnt/Datadisk/franklin/test/realtestdataset/depthImage452.jpg'
p272
sg199
S'/mnt/Datadisk/franklin/test/realtestdataset/annotation452.json'
p273
sg201
I14
sg202
g203
sa(dp274
g191
g192
sg193
(I480
I640
I3
tp275
sg195
S'/mnt/Datadisk/franklin/test/realtestdataset/litImage143.jpg'
p276
sg197
S'/mnt/Datadisk/franklin/test/realtestdataset/depthImage143.jpg'
p277
sg199
S'/mnt/Datadisk/franklin/test/realtestdataset/annotation143.json'
p278
sg201
I15
sg202
g203
sa(dp279
g191
g192
sg193
(I480
I640
I3
tp280
sg195
S'/mnt/Datadisk/franklin/test/realtestdataset/litImage206.jpg'
p281
sg197
S'/mnt/Datadisk/franklin/test/realtestdataset/depthImage206.jpg'
p282
sg199
S'/mnt/Datadisk/franklin/test/realtestdataset/annotation206.json'
p283
sg201
I16
sg202
g203
sa(dp284
g191
g192
sg193
(I480
I640
I3
tp285
sg195
S'/mnt/Datadisk/franklin/test/realtestdataset/litImage479.jpg'
p286
sg197
S'/mnt/Datadisk/franklin/test/realtestdataset/depthImage479.jpg'
p287
sg199
S'/mnt/Datadisk/franklin/test/realtestdataset/annotation479.json'
p288
sg201
I17
sg202
g203
sa(dp289
g191
g192
sg193
(I480
I640
I3
tp290
sg195
S'/mnt/Datadisk/franklin/test/realtestdataset/litImage317.jpg'
p291
sg197
S'/mnt/Datadisk/franklin/test/realtestdataset/depthImage317.jpg'
p292
sg199
S'/mnt/Datadisk/franklin/test/realtestdataset/annotation317.json'
p293
sg201
I18
sg202
g203
sa(dp294
g191
g192
sg193
(I480
I640
I3
tp295
sg195
S'/mnt/Datadisk/franklin/test/realtestdataset/litImage234.jpg'
p296
sg197
S'/mnt/Datadisk/franklin/test/realtestdataset/depthImage234.jpg'
p297
sg199
S'/mnt/Datadisk/franklin/test/realtestdataset/annotation234.json'
p298
sg201
I19
sg202
g203
sa(dp299
g191
g192
sg193
(I480
I640
I3
tp300
sg195
S'/mnt/Datadisk/franklin/test/realtestdataset/litImage10.jpg'
p301
sg197
S'/mnt/Datadisk/franklin/test/realtestdataset/depthImage10.jpg'
p302
sg199
S'/mnt/Datadisk/franklin/test/realtestdataset/annotation10.json'
p303
sg201
I20
sg202
g203
sa(dp304
g191
g192
sg193
(I480
I640
I3
tp305
sg195
S'/mnt/Datadisk/franklin/test/realtestdataset/litImage333.jpg'
p306
sg197
S'/mnt/Datadisk/franklin/test/realtestdataset/depthImage333.jpg'
p307
sg199
S'/mnt/Datadisk/franklin/test/realtestdataset/annotation333.json'
p308
sg201
I21
sg202
g203
sa(dp309
g191
g192
sg193
(I480
I640
I3
tp310
sg195
S'/mnt/Datadisk/franklin/test/realtestdataset/litImage15.jpg'
p311
sg197
S'/mnt/Datadisk/franklin/test/realtestdataset/depthImage15.jpg'
p312
sg199
S'/mnt/Datadisk/franklin/test/realtestdataset/annotation15.json'
p313
sg201
I22
sg202
g203
sa(dp314
g191
g192
sg193
(I480
I640
I3
tp315
sg195
S'/mnt/Datadisk/franklin/test/realtestdataset/litImage321.jpg'
p316
sg197
S'/mnt/Datadisk/franklin/test/realtestdataset/depthImage321.jpg'
p317
sg199
S'/mnt/Datadisk/franklin/test/realtestdataset/annotation321.json'
p318
sg201
I23
sg202
g203
sa(dp319
g191
g192
sg193
(I480
I640
I3
tp320
sg195
S'/mnt/Datadisk/franklin/test/realtestdataset/litImage231.jpg'
p321
sg197
S'/mnt/Datadisk/franklin/test/realtestdataset/depthImage231.jpg'
p322
sg199
S'/mnt/Datadisk/franklin/test/realtestdataset/annotation231.json'
p323
sg201
I24
sg202
g203
sa(dp324
g191
g192
sg193
(I480
I640
I3
tp325
sg195
S'/mnt/Datadisk/franklin/test/realtestdataset/litImage415.jpg'
p326
sg197
S'/mnt/Datadisk/franklin/test/realtestdataset/depthImage415.jpg'
p327
sg199
S'/mnt/Datadisk/franklin/test/realtestdataset/annotation415.json'
p328
sg201
I25
sg202
g203
sa(dp329
g191
g192
sg193
(I480
I640
I3
tp330
sg195
S'/mnt/Datadisk/franklin/test/realtestdataset/litImage263.jpg'
p331
sg197
S'/mnt/Datadisk/franklin/test/realtestdataset/depthImage263.jpg'
p332
sg199
S'/mnt/Datadisk/franklin/test/realtestdataset/annotation263.json'
p333
sg201
I26
sg202
g203
sa(dp334
g191
g192
sg193
(I480
I640
I3
tp335
sg195
S'/mnt/Datadisk/franklin/test/realtestdataset/litImage172.jpg'
p336
sg197
S'/mnt/Datadisk/franklin/test/realtestdataset/depthImage172.jpg'
p337
sg199
S'/mnt/Datadisk/franklin/test/realtestdataset/annotation172.json'
p338
sg201
I27
sg202
g203
sa(dp339
g191
g192
sg193
(I480
I640
I3
tp340
sg195
S'/mnt/Datadisk/franklin/test/realtestdataset/litImage22.jpg'
p341
sg197
S'/mnt/Datadisk/franklin/test/realtestdataset/depthImage22.jpg'
p342
sg199
S'/mnt/Datadisk/franklin/test/realtestdataset/annotation22.json'
p343
sg201
I28
sg202
g203
sa(dp344
g191
g192
sg193
(I480
I640
I3
tp345
sg195
S'/mnt/Datadisk/franklin/test/realtestdataset/litImage73.jpg'
p346
sg197
S'/mnt/Datadisk/franklin/test/realtestdataset/depthImage73.jpg'
p347
sg199
S'/mnt/Datadisk/franklin/test/realtestdataset/annotation73.json'
p348
sg201
I29
sg202
g203
sa(dp349
g191
g192
sg193
(I480
I640
I3
tp350
sg195
S'/mnt/Datadisk/franklin/test/realtestdataset/litImage59.jpg'
p351
sg197
S'/mnt/Datadisk/franklin/test/realtestdataset/depthImage59.jpg'
p352
sg199
S'/mnt/Datadisk/franklin/test/realtestdataset/annotation59.json'
p353
sg201
I30
sg202
g203
sa(dp354
g191
g192
sg193
(I480
I640
I3
tp355
sg195
S'/mnt/Datadisk/franklin/test/realtestdataset/litImage145.jpg'
p356
sg197
S'/mnt/Datadisk/franklin/test/realtestdataset/depthImage145.jpg'
p357
sg199
S'/mnt/Datadisk/franklin/test/realtestdataset/annotation145.json'
p358
sg201
I31
sg202
g203
sa(dp359
g191
g192
sg193
(I480
I640
I3
tp360
sg195
S'/mnt/Datadisk/franklin/test/realtestdataset/litImage294.jpg'
p361
sg197
S'/mnt/Datadisk/franklin/test/realtestdataset/depthImage294.jpg'
p362
sg199
S'/mnt/Datadisk/franklin/test/realtestdataset/annotation294.json'
p363
sg201
I32
sg202
g203
sa(dp364
g191
g192
sg193
(I480
I640
I3
tp365
sg195
S'/mnt/Datadisk/franklin/test/realtestdataset/litImage331.jpg'
p366
sg197
S'/mnt/Datadisk/franklin/test/realtestdataset/depthImage331.jpg'
p367
sg199
S'/mnt/Datadisk/franklin/test/realtestdataset/annotation331.json'
p368
sg201
I33
sg202
g203
sa(dp369
g191
g192
sg193
(I480
I640
I3
tp370
sg195
S'/mnt/Datadisk/franklin/test/realtestdataset/litImage308.jpg'
p371
sg197
S'/mnt/Datadisk/franklin/test/realtestdataset/depthImage308.jpg'
p372
sg199
S'/mnt/Datadisk/franklin/test/realtestdataset/annotation308.json'
p373
sg201
I34
sg202
g203
sa(dp374
g191
g192
sg193
(I480
I640
I3
tp375
sg195
S'/mnt/Datadisk/franklin/test/realtestdataset/litImage365.jpg'
p376
sg197
S'/mnt/Datadisk/franklin/test/realtestdataset/depthImage365.jpg'
p377
sg199
S'/mnt/Datadisk/franklin/test/realtestdataset/annotation365.json'
p378
sg201
I35
sg202
g203
sa(dp379
g191
g192
sg193
(I480
I640
I3
tp380
sg195
S'/mnt/Datadisk/franklin/test/realtestdataset/litImage305.jpg'
p381
sg197
S'/mnt/Datadisk/franklin/test/realtestdataset/depthImage305.jpg'
p382
sg199
S'/mnt/Datadisk/franklin/test/realtestdataset/annotation305.json'
p383
sg201
I36
sg202
g203
sa(dp384
g191
g192
sg193
(I480
I640
I3
tp385
sg195
S'/mnt/Datadisk/franklin/test/realtestdataset/litImage436.jpg'
p386
sg197
S'/mnt/Datadisk/franklin/test/realtestdataset/depthImage436.jpg'
p387
sg199
S'/mnt/Datadisk/franklin/test/realtestdataset/annotation436.json'
p388
sg201
I37
sg202
g203
sa(dp389
g191
g192
sg193
(I480
I640
I3
tp390
sg195
S'/mnt/Datadisk/franklin/test/realtestdataset/litImage280.jpg'
p391
sg197
S'/mnt/Datadisk/franklin/test/realtestdataset/depthImage280.jpg'
p392
sg199
S'/mnt/Datadisk/franklin/test/realtestdataset/annotation280.json'
p393
sg201
I38
sg202
g203
sa(dp394
g191
g192
sg193
(I480
I640
I3
tp395
sg195
S'/mnt/Datadisk/franklin/test/realtestdataset/litImage21.jpg'
p396
sg197
S'/mnt/Datadisk/franklin/test/realtestdataset/depthImage21.jpg'
p397
sg199
S'/mnt/Datadisk/franklin/test/realtestdataset/annotation21.json'
p398
sg201
I39
sg202
g203
sa(dp399
g191
g192
sg193
(I480
I640
I3
tp400
sg195
S'/mnt/Datadisk/franklin/test/realtestdataset/litImage60.jpg'
p401
sg197
S'/mnt/Datadisk/franklin/test/realtestdataset/depthImage60.jpg'
p402
sg199
S'/mnt/Datadisk/franklin/test/realtestdataset/annotation60.json'
p403
sg201
I40
sg202
g203
sa(dp404
g191
g192
sg193
(I480
I640
I3
tp405
sg195
S'/mnt/Datadisk/franklin/test/realtestdataset/litImage70.jpg'
p406
sg197
S'/mnt/Datadisk/franklin/test/realtestdataset/depthImage70.jpg'
p407
sg199
S'/mnt/Datadisk/franklin/test/realtestdataset/annotation70.json'
p408
sg201
I41
sg202
g203
sa(dp409
g191
g192
sg193
(I480
I640
I3
tp410
sg195
S'/mnt/Datadisk/franklin/test/realtestdataset/litImage53.jpg'
p411
sg197
S'/mnt/Datadisk/franklin/test/realtestdataset/depthImage53.jpg'
p412
sg199
S'/mnt/Datadisk/franklin/test/realtestdataset/annotation53.json'
p413
sg201
I42
sg202
g203
sa(dp414
g191
g192
sg193
(I480
I640
I3
tp415
sg195
S'/mnt/Datadisk/franklin/test/realtestdataset/litImage384.jpg'
p416
sg197
S'/mnt/Datadisk/franklin/test/realtestdataset/depthImage384.jpg'
p417
sg199
S'/mnt/Datadisk/franklin/test/realtestdataset/annotation384.json'
p418
sg201
I43
sg202
g203
sa(dp419
g191
g192
sg193
(I480
I640
I3
tp420
sg195
S'/mnt/Datadisk/franklin/test/realtestdataset/litImage457.jpg'
p421
sg197
S'/mnt/Datadisk/franklin/test/realtestdataset/depthImage457.jpg'
p422
sg199
S'/mnt/Datadisk/franklin/test/realtestdataset/annotation457.json'
p423
sg201
I44
sg202
g203
sa(dp424
g191
g192
sg193
(I480
I640
I3
tp425
sg195
S'/mnt/Datadisk/franklin/test/realtestdataset/litImage389.jpg'
p426
sg197
S'/mnt/Datadisk/franklin/test/realtestdataset/depthImage389.jpg'
p427
sg199
S'/mnt/Datadisk/franklin/test/realtestdataset/annotation389.json'
p428
sg201
I45
sg202
g203
sa(dp429
g191
g192
sg193
(I480
I640
I3
tp430
sg195
S'/mnt/Datadisk/franklin/test/realtestdataset/litImage79.jpg'
p431
sg197
S'/mnt/Datadisk/franklin/test/realtestdataset/depthImage79.jpg'
p432
sg199
S'/mnt/Datadisk/franklin/test/realtestdataset/annotation79.json'
p433
sg201
I46
sg202
g203
sa(dp434
g191
g192
sg193
(I480
I640
I3
tp435
sg195
S'/mnt/Datadisk/franklin/test/realtestdataset/litImage235.jpg'
p436
sg197
S'/mnt/Datadisk/franklin/test/realtestdataset/depthImage235.jpg'
p437
sg199
S'/mnt/Datadisk/franklin/test/realtestdataset/annotation235.json'
p438
sg201
I47
sg202
g203
sa(dp439
g191
g192
sg193
(I480
I640
I3
tp440
sg195
S'/mnt/Datadisk/franklin/test/realtestdataset/litImage207.jpg'
p441
sg197
S'/mnt/Datadisk/franklin/test/realtestdataset/depthImage207.jpg'
p442
sg199
S'/mnt/Datadisk/franklin/test/realtestdataset/annotation207.json'
p443
sg201
I48
sg202
g203
sa(dp444
g191
g192
sg193
(I480
I640
I3
tp445
sg195
S'/mnt/Datadisk/franklin/test/realtestdataset/litImage259.jpg'
p446
sg197
S'/mnt/Datadisk/franklin/test/realtestdataset/depthImage259.jpg'
p447
sg199
S'/mnt/Datadisk/franklin/test/realtestdataset/annotation259.json'
p448
sg201
I49
sg202
g203
sa(dp449
g191
g192
sg193
(I480
I640
I3
tp450
sg195
S'/mnt/Datadisk/franklin/test/realtestdataset/litImage258.jpg'
p451
sg197
S'/mnt/Datadisk/franklin/test/realtestdataset/depthImage258.jpg'
p452
sg199
S'/mnt/Datadisk/franklin/test/realtestdataset/annotation258.json'
p453
sg201
I50
sg202
g203
sa(dp454
g191
g192
sg193
(I480
I640
I3
tp455
sg195
S'/mnt/Datadisk/franklin/test/realtestdataset/litImage227.jpg'
p456
sg197
S'/mnt/Datadisk/franklin/test/realtestdataset/depthImage227.jpg'
p457
sg199
S'/mnt/Datadisk/franklin/test/realtestdataset/annotation227.json'
p458
sg201
I51
sg202
g203
sa(dp459
g191
g192
sg193
(I480
I640
I3
tp460
sg195
S'/mnt/Datadisk/franklin/test/realtestdataset/litImage296.jpg'
p461
sg197
S'/mnt/Datadisk/franklin/test/realtestdataset/depthImage296.jpg'
p462
sg199
S'/mnt/Datadisk/franklin/test/realtestdataset/annotation296.json'
p463
sg201
I52
sg202
g203
sa(dp464
g191
g192
sg193
(I480
I640
I3
tp465
sg195
S'/mnt/Datadisk/franklin/test/realtestdataset/litImage430.jpg'
p466
sg197
S'/mnt/Datadisk/franklin/test/realtestdataset/depthImage430.jpg'
p467
sg199
S'/mnt/Datadisk/franklin/test/realtestdataset/annotation430.json'
p468
sg201
I53
sg202
g203
sa(dp469
g191
g192
sg193
(I480
I640
I3
tp470
sg195
S'/mnt/Datadisk/franklin/test/realtestdataset/litImage312.jpg'
p471
sg197
S'/mnt/Datadisk/franklin/test/realtestdataset/depthImage312.jpg'
p472
sg199
S'/mnt/Datadisk/franklin/test/realtestdataset/annotation312.json'
p473
sg201
I54
sg202
g203
sa(dp474
g191
g192
sg193
(I480
I640
I3
tp475
sg195
S'/mnt/Datadisk/franklin/test/realtestdataset/litImage71.jpg'
p476
sg197
S'/mnt/Datadisk/franklin/test/realtestdataset/depthImage71.jpg'
p477
sg199
S'/mnt/Datadisk/franklin/test/realtestdataset/annotation71.json'
p478
sg201
I55
sg202
g203
sa(dp479
g191
g192
sg193
(I480
I640
I3
tp480
sg195
S'/mnt/Datadisk/franklin/test/realtestdataset/litImage180.jpg'
p481
sg197
S'/mnt/Datadisk/franklin/test/realtestdataset/depthImage180.jpg'
p482
sg199
S'/mnt/Datadisk/franklin/test/realtestdataset/annotation180.json'
p483
sg201
I56
sg202
g203
sa(dp484
g191
g192
sg193
(I480
I640
I3
tp485
sg195
S'/mnt/Datadisk/franklin/test/realtestdataset/litImage467.jpg'
p486
sg197
S'/mnt/Datadisk/franklin/test/realtestdataset/depthImage467.jpg'
p487
sg199
S'/mnt/Datadisk/franklin/test/realtestdataset/annotation467.json'
p488
sg201
I57
sg202
g203
sa(dp489
g191
g192
sg193
(I480
I640
I3
tp490
sg195
S'/mnt/Datadisk/franklin/test/realtestdataset/litImage86.jpg'
p491
sg197
S'/mnt/Datadisk/franklin/test/realtestdataset/depthImage86.jpg'
p492
sg199
S'/mnt/Datadisk/franklin/test/realtestdataset/annotation86.json'
p493
sg201
I58
sg202
g203
sa(dp494
g191
g192
sg193
(I480
I640
I3
tp495
sg195
S'/mnt/Datadisk/franklin/test/realtestdataset/litImage461.jpg'
p496
sg197
S'/mnt/Datadisk/franklin/test/realtestdataset/depthImage461.jpg'
p497
sg199
S'/mnt/Datadisk/franklin/test/realtestdataset/annotation461.json'
p498
sg201
I59
sg202
g203
sa(dp499
g191
g192
sg193
(I480
I640
I3
tp500
sg195
S'/mnt/Datadisk/franklin/test/realtestdataset/litImage198.jpg'
p501
sg197
S'/mnt/Datadisk/franklin/test/realtestdataset/depthImage198.jpg'
p502
sg199
S'/mnt/Datadisk/franklin/test/realtestdataset/annotation198.json'
p503
sg201
I60
sg202
g203
sa(dp504
g191
g192
sg193
(I480
I640
I3
tp505
sg195
S'/mnt/Datadisk/franklin/test/realtestdataset/litImage165.jpg'
p506
sg197
S'/mnt/Datadisk/franklin/test/realtestdataset/depthImage165.jpg'
p507
sg199
S'/mnt/Datadisk/franklin/test/realtestdataset/annotation165.json'
p508
sg201
I61
sg202
g203
sa(dp509
g191
g192
sg193
(I480
I640
I3
tp510
sg195
S'/mnt/Datadisk/franklin/test/realtestdataset/litImage444.jpg'
p511
sg197
S'/mnt/Datadisk/franklin/test/realtestdataset/depthImage444.jpg'
p512
sg199
S'/mnt/Datadisk/franklin/test/realtestdataset/annotation444.json'
p513
sg201
I62
sg202
g203
sa(dp514
g191
g192
sg193
(I480
I640
I3
tp515
sg195
S'/mnt/Datadisk/franklin/test/realtestdataset/litImage423.jpg'
p516
sg197
S'/mnt/Datadisk/franklin/test/realtestdataset/depthImage423.jpg'
p517
sg199
S'/mnt/Datadisk/franklin/test/realtestdataset/annotation423.json'
p518
sg201
I63
sg202
g203
sa(dp519
g191
g192
sg193
(I480
I640
I3
tp520
sg195
S'/mnt/Datadisk/franklin/test/realtestdataset/litImage114.jpg'
p521
sg197
S'/mnt/Datadisk/franklin/test/realtestdataset/depthImage114.jpg'
p522
sg199
S'/mnt/Datadisk/franklin/test/realtestdataset/annotation114.json'
p523
sg201
I64
sg202
g203
sa(dp524
g191
g192
sg193
(I480
I640
I3
tp525
sg195
S'/mnt/Datadisk/franklin/test/realtestdataset/litImage133.jpg'
p526
sg197
S'/mnt/Datadisk/franklin/test/realtestdataset/depthImage133.jpg'
p527
sg199
S'/mnt/Datadisk/franklin/test/realtestdataset/annotation133.json'
p528
sg201
I65
sg202
g203
sa(dp529
g191
g192
sg193
(I480
I640
I3
tp530
sg195
S'/mnt/Datadisk/franklin/test/realtestdataset/litImage445.jpg'
p531
sg197
S'/mnt/Datadisk/franklin/test/realtestdataset/depthImage445.jpg'
p532
sg199
S'/mnt/Datadisk/franklin/test/realtestdataset/annotation445.json'
p533
sg201
I66
sg202
g203
sa(dp534
g191
g192
sg193
(I480
I640
I3
tp535
sg195
S'/mnt/Datadisk/franklin/test/realtestdataset/litImage363.jpg'
p536
sg197
S'/mnt/Datadisk/franklin/test/realtestdataset/depthImage363.jpg'
p537
sg199
S'/mnt/Datadisk/franklin/test/realtestdataset/annotation363.json'
p538
sg201
I67
sg202
g203
sa(dp539
g191
g192
sg193
(I480
I640
I3
tp540
sg195
S'/mnt/Datadisk/franklin/test/realtestdataset/litImage171.jpg'
p541
sg197
S'/mnt/Datadisk/franklin/test/realtestdataset/depthImage171.jpg'
p542
sg199
S'/mnt/Datadisk/franklin/test/realtestdataset/annotation171.json'
p543
sg201
I68
sg202
g203
sa(dp544
g191
g192
sg193
(I480
I640
I3
tp545
sg195
S'/mnt/Datadisk/franklin/test/realtestdataset/litImage237.jpg'
p546
sg197
S'/mnt/Datadisk/franklin/test/realtestdataset/depthImage237.jpg'
p547
sg199
S'/mnt/Datadisk/franklin/test/realtestdataset/annotation237.json'
p548
sg201
I69
sg202
g203
sa(dp549
g191
g192
sg193
(I480
I640
I3
tp550
sg195
S'/mnt/Datadisk/franklin/test/realtestdataset/litImage232.jpg'
p551
sg197
S'/mnt/Datadisk/franklin/test/realtestdataset/depthImage232.jpg'
p552
sg199
S'/mnt/Datadisk/franklin/test/realtestdataset/annotation232.json'
p553
sg201
I70
sg202
g203
sa(dp554
g191
g192
sg193
(I480
I640
I3
tp555
sg195
S'/mnt/Datadisk/franklin/test/realtestdataset/litImage119.jpg'
p556
sg197
S'/mnt/Datadisk/franklin/test/realtestdataset/depthImage119.jpg'
p557
sg199
S'/mnt/Datadisk/franklin/test/realtestdataset/annotation119.json'
p558
sg201
I71
sg202
g203
sa(dp559
g191
g192
sg193
(I480
I640
I3
tp560
sg195
S'/mnt/Datadisk/franklin/test/realtestdataset/litImage236.jpg'
p561
sg197
S'/mnt/Datadisk/franklin/test/realtestdataset/depthImage236.jpg'
p562
sg199
S'/mnt/Datadisk/franklin/test/realtestdataset/annotation236.json'
p563
sg201
I72
sg202
g203
sa(dp564
g191
g192
sg193
(I480
I640
I3
tp565
sg195
S'/mnt/Datadisk/franklin/test/realtestdataset/litImage335.jpg'
p566
sg197
S'/mnt/Datadisk/franklin/test/realtestdataset/depthImage335.jpg'
p567
sg199
S'/mnt/Datadisk/franklin/test/realtestdataset/annotation335.json'
p568
sg201
I73
sg202
g203
sa(dp569
g191
g192
sg193
(I480
I640
I3
tp570
sg195
S'/mnt/Datadisk/franklin/test/realtestdataset/litImage134.jpg'
p571
sg197
S'/mnt/Datadisk/franklin/test/realtestdataset/depthImage134.jpg'
p572
sg199
S'/mnt/Datadisk/franklin/test/realtestdataset/annotation134.json'
p573
sg201
I74
sg202
g203
sa(dp574
g191
g192
sg193
(I480
I640
I3
tp575
sg195
S'/mnt/Datadisk/franklin/test/realtestdataset/litImage108.jpg'
p576
sg197
S'/mnt/Datadisk/franklin/test/realtestdataset/depthImage108.jpg'
p577
sg199
S'/mnt/Datadisk/franklin/test/realtestdataset/annotation108.json'
p578
sg201
I75
sg202
g203
sa(dp579
g191
g192
sg193
(I480
I640
I3
tp580
sg195
S'/mnt/Datadisk/franklin/test/realtestdataset/litImage402.jpg'
p581
sg197
S'/mnt/Datadisk/franklin/test/realtestdataset/depthImage402.jpg'
p582
sg199
S'/mnt/Datadisk/franklin/test/realtestdataset/annotation402.json'
p583
sg201
I76
sg202
g203
sa(dp584
g191
g192
sg193
(I480
I640
I3
tp585
sg195
S'/mnt/Datadisk/franklin/test/realtestdataset/litImage243.jpg'
p586
sg197
S'/mnt/Datadisk/franklin/test/realtestdataset/depthImage243.jpg'
p587
sg199
S'/mnt/Datadisk/franklin/test/realtestdataset/annotation243.json'
p588
sg201
I77
sg202
g203
sa(dp589
g191
g192
sg193
(I480
I640
I3
tp590
sg195
S'/mnt/Datadisk/franklin/test/realtestdataset/litImage412.jpg'
p591
sg197
S'/mnt/Datadisk/franklin/test/realtestdataset/depthImage412.jpg'
p592
sg199
S'/mnt/Datadisk/franklin/test/realtestdataset/annotation412.json'
p593
sg201
I78
sg202
g203
sa(dp594
g191
g192
sg193
(I480
I640
I3
tp595
sg195
S'/mnt/Datadisk/franklin/test/realtestdataset/litImage82.jpg'
p596
sg197
S'/mnt/Datadisk/franklin/test/realtestdataset/depthImage82.jpg'
p597
sg199
S'/mnt/Datadisk/franklin/test/realtestdataset/annotation82.json'
p598
sg201
I79
sg202
g203
sa(dp599
g191
g192
sg193
(I480
I640
I3
tp600
sg195
S'/mnt/Datadisk/franklin/test/realtestdataset/litImage478.jpg'
p601
sg197
S'/mnt/Datadisk/franklin/test/realtestdataset/depthImage478.jpg'
p602
sg199
S'/mnt/Datadisk/franklin/test/realtestdataset/annotation478.json'
p603
sg201
I80
sg202
g203
sa(dp604
g191
g192
sg193
(I480
I640
I3
tp605
sg195
S'/mnt/Datadisk/franklin/test/realtestdataset/litImage328.jpg'
p606
sg197
S'/mnt/Datadisk/franklin/test/realtestdataset/depthImage328.jpg'
p607
sg199
S'/mnt/Datadisk/franklin/test/realtestdataset/annotation328.json'
p608
sg201
I81
sg202
g203
sa(dp609
g191
g192
sg193
(I480
I640
I3
tp610
sg195
S'/mnt/Datadisk/franklin/test/realtestdataset/litImage41.jpg'
p611
sg197
S'/mnt/Datadisk/franklin/test/realtestdataset/depthImage41.jpg'
p612
sg199
S'/mnt/Datadisk/franklin/test/realtestdataset/annotation41.json'
p613
sg201
I82
sg202
g203
sa(dp614
g191
g192
sg193
(I480
I640
I3
tp615
sg195
S'/mnt/Datadisk/franklin/test/realtestdataset/litImage43.jpg'
p616
sg197
S'/mnt/Datadisk/franklin/test/realtestdataset/depthImage43.jpg'
p617
sg199
S'/mnt/Datadisk/franklin/test/realtestdataset/annotation43.json'
p618
sg201
I83
sg202
g203
sa(dp619
g191
g192
sg193
(I480
I640
I3
tp620
sg195
S'/mnt/Datadisk/franklin/test/realtestdataset/litImage146.jpg'
p621
sg197
S'/mnt/Datadisk/franklin/test/realtestdataset/depthImage146.jpg'
p622
sg199
S'/mnt/Datadisk/franklin/test/realtestdataset/annotation146.json'
p623
sg201
I84
sg202
g203
sa(dp624
g191
g192
sg193
(I480
I640
I3
tp625
sg195
S'/mnt/Datadisk/franklin/test/realtestdataset/litImage200.jpg'
p626
sg197
S'/mnt/Datadisk/franklin/test/realtestdataset/depthImage200.jpg'
p627
sg199
S'/mnt/Datadisk/franklin/test/realtestdataset/annotation200.json'
p628
sg201
I85
sg202
g203
sa(dp629
g191
g192
sg193
(I480
I640
I3
tp630
sg195
S'/mnt/Datadisk/franklin/test/realtestdataset/litImage300.jpg'
p631
sg197
S'/mnt/Datadisk/franklin/test/realtestdataset/depthImage300.jpg'
p632
sg199
S'/mnt/Datadisk/franklin/test/realtestdataset/annotation300.json'
p633
sg201
I86
sg202
g203
sa(dp634
g191
g192
sg193
(I480
I640
I3
tp635
sg195
S'/mnt/Datadisk/franklin/test/realtestdataset/litImage301.jpg'
p636
sg197
S'/mnt/Datadisk/franklin/test/realtestdataset/depthImage301.jpg'
p637
sg199
S'/mnt/Datadisk/franklin/test/realtestdataset/annotation301.json'
p638
sg201
I87
sg202
g203
sa(dp639
g191
g192
sg193
(I480
I640
I3
tp640
sg195
S'/mnt/Datadisk/franklin/test/realtestdataset/litImage110.jpg'
p641
sg197
S'/mnt/Datadisk/franklin/test/realtestdataset/depthImage110.jpg'
p642
sg199
S'/mnt/Datadisk/franklin/test/realtestdataset/annotation110.json'
p643
sg201
I88
sg202
g203
sa(dp644
g191
g192
sg193
(I480
I640
I3
tp645
sg195
S'/mnt/Datadisk/franklin/test/realtestdataset/litImage93.jpg'
p646
sg197
S'/mnt/Datadisk/franklin/test/realtestdataset/depthImage93.jpg'
p647
sg199
S'/mnt/Datadisk/franklin/test/realtestdataset/annotation93.json'
p648
sg201
I89
sg202
g203
sa(dp649
g191
g192
sg193
(I480
I640
I3
tp650
sg195
S'/mnt/Datadisk/franklin/test/realtestdataset/litImage189.jpg'
p651
sg197
S'/mnt/Datadisk/franklin/test/realtestdataset/depthImage189.jpg'
p652
sg199
S'/mnt/Datadisk/franklin/test/realtestdataset/annotation189.json'
p653
sg201
I90
sg202
g203
sa(dp654
g191
g192
sg193
(I480
I640
I3
tp655
sg195
S'/mnt/Datadisk/franklin/test/realtestdataset/litImage18.jpg'
p656
sg197
S'/mnt/Datadisk/franklin/test/realtestdataset/depthImage18.jpg'
p657
sg199
S'/mnt/Datadisk/franklin/test/realtestdataset/annotation18.json'
p658
sg201
I91
sg202
g203
sa(dp659
g191
g192
sg193
(I480
I640
I3
tp660
sg195
S'/mnt/Datadisk/franklin/test/realtestdataset/litImage338.jpg'
p661
sg197
S'/mnt/Datadisk/franklin/test/realtestdataset/depthImage338.jpg'
p662
sg199
S'/mnt/Datadisk/franklin/test/realtestdataset/annotation338.json'
p663
sg201
I92
sg202
g203
sa(dp664
g191
g192
sg193
(I480
I640
I3
tp665
sg195
S'/mnt/Datadisk/franklin/test/realtestdataset/litImage228.jpg'
p666
sg197
S'/mnt/Datadisk/franklin/test/realtestdataset/depthImage228.jpg'
p667
sg199
S'/mnt/Datadisk/franklin/test/realtestdataset/annotation228.json'
p668
sg201
I93
sg202
g203
sa(dp669
g191
g192
sg193
(I480
I640
I3
tp670
sg195
S'/mnt/Datadisk/franklin/test/realtestdataset/litImage150.jpg'
p671
sg197
S'/mnt/Datadisk/franklin/test/realtestdataset/depthImage150.jpg'
p672
sg199
S'/mnt/Datadisk/franklin/test/realtestdataset/annotation150.json'
p673
sg201
I94
sg202
g203
sa(dp674
g191
g192
sg193
(I480
I640
I3
tp675
sg195
S'/mnt/Datadisk/franklin/test/realtestdataset/litImage434.jpg'
p676
sg197
S'/mnt/Datadisk/franklin/test/realtestdataset/depthImage434.jpg'
p677
sg199
S'/mnt/Datadisk/franklin/test/realtestdataset/annotation434.json'
p678
sg201
I95
sg202
g203
sa(dp679
g191
g192
sg193
(I480
I640
I3
tp680
sg195
S'/mnt/Datadisk/franklin/test/realtestdataset/litImage181.jpg'
p681
sg197
S'/mnt/Datadisk/franklin/test/realtestdataset/depthImage181.jpg'
p682
sg199
S'/mnt/Datadisk/franklin/test/realtestdataset/annotation181.json'
p683
sg201
I96
sg202
g203
sa(dp684
g191
g192
sg193
(I480
I640
I3
tp685
sg195
S'/mnt/Datadisk/franklin/test/realtestdataset/litImage253.jpg'
p686
sg197
S'/mnt/Datadisk/franklin/test/realtestdataset/depthImage253.jpg'
p687
sg199
S'/mnt/Datadisk/franklin/test/realtestdataset/annotation253.json'
p688
sg201
I97
sg202
g203
sa(dp689
g191
g192
sg193
(I480
I640
I3
tp690
sg195
S'/mnt/Datadisk/franklin/test/realtestdataset/litImage141.jpg'
p691
sg197
S'/mnt/Datadisk/franklin/test/realtestdataset/depthImage141.jpg'
p692
sg199
S'/mnt/Datadisk/franklin/test/realtestdataset/annotation141.json'
p693
sg201
I98
sg202
g203
sa(dp694
g191
g192
sg193
(I480
I640
I3
tp695
sg195
S'/mnt/Datadisk/franklin/test/realtestdataset/litImage102.jpg'
p696
sg197
S'/mnt/Datadisk/franklin/test/realtestdataset/depthImage102.jpg'
p697
sg199
S'/mnt/Datadisk/franklin/test/realtestdataset/annotation102.json'
p698
sg201
I99
sg202
g203
sa(dp699
g191
g192
sg193
(I480
I640
I3
tp700
sg195
S'/mnt/Datadisk/franklin/test/realtestdataset/litImage336.jpg'
p701
sg197
S'/mnt/Datadisk/franklin/test/realtestdataset/depthImage336.jpg'
p702
sg199
S'/mnt/Datadisk/franklin/test/realtestdataset/annotation336.json'
p703
sg201
I100
sg202
g203
sa(dp704
g191
g192
sg193
(I480
I640
I3
tp705
sg195
S'/mnt/Datadisk/franklin/test/realtestdataset/litImage105.jpg'
p706
sg197
S'/mnt/Datadisk/franklin/test/realtestdataset/depthImage105.jpg'
p707
sg199
S'/mnt/Datadisk/franklin/test/realtestdataset/annotation105.json'
p708
sg201
I101
sg202
g203
sa(dp709
g191
g192
sg193
(I480
I640
I3
tp710
sg195
S'/mnt/Datadisk/franklin/test/realtestdataset/litImage208.jpg'
p711
sg197
S'/mnt/Datadisk/franklin/test/realtestdataset/depthImage208.jpg'
p712
sg199
S'/mnt/Datadisk/franklin/test/realtestdataset/annotation208.json'
p713
sg201
I102
sg202
g203
sa(dp714
g191
g192
sg193
(I480
I640
I3
tp715
sg195
S'/mnt/Datadisk/franklin/test/realtestdataset/litImage264.jpg'
p716
sg197
S'/mnt/Datadisk/franklin/test/realtestdataset/depthImage264.jpg'
p717
sg199
S'/mnt/Datadisk/franklin/test/realtestdataset/annotation264.json'
p718
sg201
I103
sg202
g203
sa(dp719
g191
g192
sg193
(I480
I640
I3
tp720
sg195
S'/mnt/Datadisk/franklin/test/realtestdataset/litImage247.jpg'
p721
sg197
S'/mnt/Datadisk/franklin/test/realtestdataset/depthImage247.jpg'
p722
sg199
S'/mnt/Datadisk/franklin/test/realtestdataset/annotation247.json'
p723
sg201
I104
sg202
g203
sa(dp724
g191
g192
sg193
(I480
I640
I3
tp725
sg195
S'/mnt/Datadisk/franklin/test/realtestdataset/litImage279.jpg'
p726
sg197
S'/mnt/Datadisk/franklin/test/realtestdataset/depthImage279.jpg'
p727
sg199
S'/mnt/Datadisk/franklin/test/realtestdataset/annotation279.json'
p728
sg201
I105
sg202
g203
sa(dp729
g191
g192
sg193
(I480
I640
I3
tp730
sg195
S'/mnt/Datadisk/franklin/test/realtestdataset/litImage149.jpg'
p731
sg197
S'/mnt/Datadisk/franklin/test/realtestdataset/depthImage149.jpg'
p732
sg199
S'/mnt/Datadisk/franklin/test/realtestdataset/annotation149.json'
p733
sg201
I106
sg202
g203
sa(dp734
g191
g192
sg193
(I480
I640
I3
tp735
sg195
S'/mnt/Datadisk/franklin/test/realtestdataset/litImage488.jpg'
p736
sg197
S'/mnt/Datadisk/franklin/test/realtestdataset/depthImage488.jpg'
p737
sg199
S'/mnt/Datadisk/franklin/test/realtestdataset/annotation488.json'
p738
sg201
I107
sg202
g203
sa(dp739
g191
g192
sg193
(I480
I640
I3
tp740
sg195
S'/mnt/Datadisk/franklin/test/realtestdataset/litImage5.jpg'
p741
sg197
S'/mnt/Datadisk/franklin/test/realtestdataset/depthImage5.jpg'
p742
sg199
S'/mnt/Datadisk/franklin/test/realtestdataset/annotation5.json'
p743
sg201
I108
sg202
g203
sa(dp744
g191
g192
sg193
(I480
I640
I3
tp745
sg195
S'/mnt/Datadisk/franklin/test/realtestdataset/litImage191.jpg'
p746
sg197
S'/mnt/Datadisk/franklin/test/realtestdataset/depthImage191.jpg'
p747
sg199
S'/mnt/Datadisk/franklin/test/realtestdataset/annotation191.json'
p748
sg201
I109
sg202
g203
sa(dp749
g191
g192
sg193
(I480
I640
I3
tp750
sg195
S'/mnt/Datadisk/franklin/test/realtestdataset/litImage344.jpg'
p751
sg197
S'/mnt/Datadisk/franklin/test/realtestdataset/depthImage344.jpg'
p752
sg199
S'/mnt/Datadisk/franklin/test/realtestdataset/annotation344.json'
p753
sg201
I110
sg202
g203
sa(dp754
g191
g192
sg193
(I480
I640
I3
tp755
sg195
S'/mnt/Datadisk/franklin/test/realtestdataset/litImage219.jpg'
p756
sg197
S'/mnt/Datadisk/franklin/test/realtestdataset/depthImage219.jpg'
p757
sg199
S'/mnt/Datadisk/franklin/test/realtestdataset/annotation219.json'
p758
sg201
I111
sg202
g203
sa(dp759
g191
g192
sg193
(I480
I640
I3
tp760
sg195
S'/mnt/Datadisk/franklin/test/realtestdataset/litImage302.jpg'
p761
sg197
S'/mnt/Datadisk/franklin/test/realtestdataset/depthImage302.jpg'
p762
sg199
S'/mnt/Datadisk/franklin/test/realtestdataset/annotation302.json'
p763
sg201
I112
sg202
g203
sa(dp764
g191
g192
sg193
(I480
I640
I3
tp765
sg195
S'/mnt/Datadisk/franklin/test/realtestdataset/litImage190.jpg'
p766
sg197
S'/mnt/Datadisk/franklin/test/realtestdataset/depthImage190.jpg'
p767
sg199
S'/mnt/Datadisk/franklin/test/realtestdataset/annotation190.json'
p768
sg201
I113
sg202
g203
sa(dp769
g191
g192
sg193
(I480
I640
I3
tp770
sg195
S'/mnt/Datadisk/franklin/test/realtestdataset/litImage241.jpg'
p771
sg197
S'/mnt/Datadisk/franklin/test/realtestdataset/depthImage241.jpg'
p772
sg199
S'/mnt/Datadisk/franklin/test/realtestdataset/annotation241.json'
p773
sg201
I114
sg202
g203
sa(dp774
g191
g192
sg193
(I480
I640
I3
tp775
sg195
S'/mnt/Datadisk/franklin/test/realtestdataset/litImage27.jpg'
p776
sg197
S'/mnt/Datadisk/franklin/test/realtestdataset/depthImage27.jpg'
p777
sg199
S'/mnt/Datadisk/franklin/test/realtestdataset/annotation27.json'
p778
sg201
I115
sg202
g203
sa(dp779
g191
g192
sg193
(I480
I640
I3
tp780
sg195
S'/mnt/Datadisk/franklin/test/realtestdataset/litImage409.jpg'
p781
sg197
S'/mnt/Datadisk/franklin/test/realtestdataset/depthImage409.jpg'
p782
sg199
S'/mnt/Datadisk/franklin/test/realtestdataset/annotation409.json'
p783
sg201
I116
sg202
g203
sa(dp784
g191
g192
sg193
(I480
I640
I3
tp785
sg195
S'/mnt/Datadisk/franklin/test/realtestdataset/litImage378.jpg'
p786
sg197
S'/mnt/Datadisk/franklin/test/realtestdataset/depthImage378.jpg'
p787
sg199
S'/mnt/Datadisk/franklin/test/realtestdataset/annotation378.json'
p788
sg201
I117
sg202
g203
sa(dp789
g191
g192
sg193
(I480
I640
I3
tp790
sg195
S'/mnt/Datadisk/franklin/test/realtestdataset/litImage288.jpg'
p791
sg197
S'/mnt/Datadisk/franklin/test/realtestdataset/depthImage288.jpg'
p792
sg199
S'/mnt/Datadisk/franklin/test/realtestdataset/annotation288.json'
p793
sg201
I118
sg202
g203
sa(dp794
g191
g192
sg193
(I480
I640
I3
tp795
sg195
S'/mnt/Datadisk/franklin/test/realtestdataset/litImage197.jpg'
p796
sg197
S'/mnt/Datadisk/franklin/test/realtestdataset/depthImage197.jpg'
p797
sg199
S'/mnt/Datadisk/franklin/test/realtestdataset/annotation197.json'
p798
sg201
I119
sg202
g203
sa(dp799
g191
g192
sg193
(I480
I640
I3
tp800
sg195
S'/mnt/Datadisk/franklin/test/realtestdataset/litImage476.jpg'
p801
sg197
S'/mnt/Datadisk/franklin/test/realtestdataset/depthImage476.jpg'
p802
sg199
S'/mnt/Datadisk/franklin/test/realtestdataset/annotation476.json'
p803
sg201
I120
sg202
g203
sa(dp804
g191
g192
sg193
(I480
I640
I3
tp805
sg195
S'/mnt/Datadisk/franklin/test/realtestdataset/litImage388.jpg'
p806
sg197
S'/mnt/Datadisk/franklin/test/realtestdataset/depthImage388.jpg'
p807
sg199
S'/mnt/Datadisk/franklin/test/realtestdataset/annotation388.json'
p808
sg201
I121
sg202
g203
sa(dp809
g191
g192
sg193
(I480
I640
I3
tp810
sg195
S'/mnt/Datadisk/franklin/test/realtestdataset/litImage213.jpg'
p811
sg197
S'/mnt/Datadisk/franklin/test/realtestdataset/depthImage213.jpg'
p812
sg199
S'/mnt/Datadisk/franklin/test/realtestdataset/annotation213.json'
p813
sg201
I122
sg202
g203
sa(dp814
g191
g192
sg193
(I480
I640
I3
tp815
sg195
S'/mnt/Datadisk/franklin/test/realtestdataset/litImage307.jpg'
p816
sg197
S'/mnt/Datadisk/franklin/test/realtestdataset/depthImage307.jpg'
p817
sg199
S'/mnt/Datadisk/franklin/test/realtestdataset/annotation307.json'
p818
sg201
I123
sg202
g203
sa(dp819
g191
g192
sg193
(I480
I640
I3
tp820
sg195
S'/mnt/Datadisk/franklin/test/realtestdataset/litImage205.jpg'
p821
sg197
S'/mnt/Datadisk/franklin/test/realtestdataset/depthImage205.jpg'
p822
sg199
S'/mnt/Datadisk/franklin/test/realtestdataset/annotation205.json'
p823
sg201
I124
sg202
g203
sa(dp824
g191
g192
sg193
(I480
I640
I3
tp825
sg195
S'/mnt/Datadisk/franklin/test/realtestdataset/litImage116.jpg'
p826
sg197
S'/mnt/Datadisk/franklin/test/realtestdataset/depthImage116.jpg'
p827
sg199
S'/mnt/Datadisk/franklin/test/realtestdataset/annotation116.json'
p828
sg201
I125
sg202
g203
sa(dp829
g191
g192
sg193
(I480
I640
I3
tp830
sg195
S'/mnt/Datadisk/franklin/test/realtestdataset/litImage7.jpg'
p831
sg197
S'/mnt/Datadisk/franklin/test/realtestdataset/depthImage7.jpg'
p832
sg199
S'/mnt/Datadisk/franklin/test/realtestdataset/annotation7.json'
p833
sg201
I126
sg202
g203
sa(dp834
g191
g192
sg193
(I480
I640
I3
tp835
sg195
S'/mnt/Datadisk/franklin/test/realtestdataset/litImage289.jpg'
p836
sg197
S'/mnt/Datadisk/franklin/test/realtestdataset/depthImage289.jpg'
p837
sg199
S'/mnt/Datadisk/franklin/test/realtestdataset/annotation289.json'
p838
sg201
I127
sg202
g203
sa(dp839
g191
g192
sg193
(I480
I640
I3
tp840
sg195
S'/mnt/Datadisk/franklin/test/realtestdataset/litImage84.jpg'
p841
sg197
S'/mnt/Datadisk/franklin/test/realtestdataset/depthImage84.jpg'
p842
sg199
S'/mnt/Datadisk/franklin/test/realtestdataset/annotation84.json'
p843
sg201
I128
sg202
g203
sa(dp844
g191
g192
sg193
(I480
I640
I3
tp845
sg195
S'/mnt/Datadisk/franklin/test/realtestdataset/litImage39.jpg'
p846
sg197
S'/mnt/Datadisk/franklin/test/realtestdataset/depthImage39.jpg'
p847
sg199
S'/mnt/Datadisk/franklin/test/realtestdataset/annotation39.json'
p848
sg201
I129
sg202
g203
sa(dp849
g191
g192
sg193
(I480
I640
I3
tp850
sg195
S'/mnt/Datadisk/franklin/test/realtestdataset/litImage293.jpg'
p851
sg197
S'/mnt/Datadisk/franklin/test/realtestdataset/depthImage293.jpg'
p852
sg199
S'/mnt/Datadisk/franklin/test/realtestdataset/annotation293.json'
p853
sg201
I130
sg202
g203
sa(dp854
g191
g192
sg193
(I480
I640
I3
tp855
sg195
S'/mnt/Datadisk/franklin/test/realtestdataset/litImage104.jpg'
p856
sg197
S'/mnt/Datadisk/franklin/test/realtestdataset/depthImage104.jpg'
p857
sg199
S'/mnt/Datadisk/franklin/test/realtestdataset/annotation104.json'
p858
sg201
I131
sg202
g203
sa(dp859
g191
g192
sg193
(I480
I640
I3
tp860
sg195
S'/mnt/Datadisk/franklin/test/realtestdataset/litImage65.jpg'
p861
sg197
S'/mnt/Datadisk/franklin/test/realtestdataset/depthImage65.jpg'
p862
sg199
S'/mnt/Datadisk/franklin/test/realtestdataset/annotation65.json'
p863
sg201
I132
sg202
g203
sa(dp864
g191
g192
sg193
(I480
I640
I3
tp865
sg195
S'/mnt/Datadisk/franklin/test/realtestdataset/litImage313.jpg'
p866
sg197
S'/mnt/Datadisk/franklin/test/realtestdataset/depthImage313.jpg'
p867
sg199
S'/mnt/Datadisk/franklin/test/realtestdataset/annotation313.json'
p868
sg201
I133
sg202
g203
sa(dp869
g191
g192
sg193
(I480
I640
I3
tp870
sg195
S'/mnt/Datadisk/franklin/test/realtestdataset/litImage419.jpg'
p871
sg197
S'/mnt/Datadisk/franklin/test/realtestdataset/depthImage419.jpg'
p872
sg199
S'/mnt/Datadisk/franklin/test/realtestdataset/annotation419.json'
p873
sg201
I134
sg202
g203
sa(dp874
g191
g192
sg193
(I480
I640
I3
tp875
sg195
S'/mnt/Datadisk/franklin/test/realtestdataset/litImage391.jpg'
p876
sg197
S'/mnt/Datadisk/franklin/test/realtestdataset/depthImage391.jpg'
p877
sg199
S'/mnt/Datadisk/franklin/test/realtestdataset/annotation391.json'
p878
sg201
I135
sg202
g203
sa(dp879
g191
g192
sg193
(I480
I640
I3
tp880
sg195
S'/mnt/Datadisk/franklin/test/realtestdataset/litImage46.jpg'
p881
sg197
S'/mnt/Datadisk/franklin/test/realtestdataset/depthImage46.jpg'
p882
sg199
S'/mnt/Datadisk/franklin/test/realtestdataset/annotation46.json'
p883
sg201
I136
sg202
g203
sa(dp884
g191
g192
sg193
(I480
I640
I3
tp885
sg195
S'/mnt/Datadisk/franklin/test/realtestdataset/litImage120.jpg'
p886
sg197
S'/mnt/Datadisk/franklin/test/realtestdataset/depthImage120.jpg'
p887
sg199
S'/mnt/Datadisk/franklin/test/realtestdataset/annotation120.json'
p888
sg201
I137
sg202
g203
sa(dp889
g191
g192
sg193
(I480
I640
I3
tp890
sg195
S'/mnt/Datadisk/franklin/test/realtestdataset/litImage117.jpg'
p891
sg197
S'/mnt/Datadisk/franklin/test/realtestdataset/depthImage117.jpg'
p892
sg199
S'/mnt/Datadisk/franklin/test/realtestdataset/annotation117.json'
p893
sg201
I138
sg202
g203
sa(dp894
g191
g192
sg193
(I480
I640
I3
tp895
sg195
S'/mnt/Datadisk/franklin/test/realtestdataset/litImage379.jpg'
p896
sg197
S'/mnt/Datadisk/franklin/test/realtestdataset/depthImage379.jpg'
p897
sg199
S'/mnt/Datadisk/franklin/test/realtestdataset/annotation379.json'
p898
sg201
I139
sg202
g203
sa(dp899
g191
g192
sg193
(I480
I640
I3
tp900
sg195
S'/mnt/Datadisk/franklin/test/realtestdataset/litImage453.jpg'
p901
sg197
S'/mnt/Datadisk/franklin/test/realtestdataset/depthImage453.jpg'
p902
sg199
S'/mnt/Datadisk/franklin/test/realtestdataset/annotation453.json'
p903
sg201
I140
sg202
g203
sa(dp904
g191
g192
sg193
(I480
I640
I3
tp905
sg195
S'/mnt/Datadisk/franklin/test/realtestdataset/litImage465.jpg'
p906
sg197
S'/mnt/Datadisk/franklin/test/realtestdataset/depthImage465.jpg'
p907
sg199
S'/mnt/Datadisk/franklin/test/realtestdataset/annotation465.json'
p908
sg201
I141
sg202
g203
sa(dp909
g191
g192
sg193
(I480
I640
I3
tp910
sg195
S'/mnt/Datadisk/franklin/test/realtestdataset/litImage229.jpg'
p911
sg197
S'/mnt/Datadisk/franklin/test/realtestdataset/depthImage229.jpg'
p912
sg199
S'/mnt/Datadisk/franklin/test/realtestdataset/annotation229.json'
p913
sg201
I142
sg202
g203
sa(dp914
g191
g192
sg193
(I480
I640
I3
tp915
sg195
S'/mnt/Datadisk/franklin/test/realtestdataset/litImage339.jpg'
p916
sg197
S'/mnt/Datadisk/franklin/test/realtestdataset/depthImage339.jpg'
p917
sg199
S'/mnt/Datadisk/franklin/test/realtestdataset/annotation339.json'
p918
sg201
I143
sg202
g203
sa(dp919
g191
g192
sg193
(I480
I640
I3
tp920
sg195
S'/mnt/Datadisk/franklin/test/realtestdataset/litImage226.jpg'
p921
sg197
S'/mnt/Datadisk/franklin/test/realtestdataset/depthImage226.jpg'
p922
sg199
S'/mnt/Datadisk/franklin/test/realtestdataset/annotation226.json'
p923
sg201
I144
sg202
g203
sa(dp924
g191
g192
sg193
(I480
I640
I3
tp925
sg195
S'/mnt/Datadisk/franklin/test/realtestdataset/litImage485.jpg'
p926
sg197
S'/mnt/Datadisk/franklin/test/realtestdataset/depthImage485.jpg'
p927
sg199
S'/mnt/Datadisk/franklin/test/realtestdataset/annotation485.json'
p928
sg201
I145
sg202
g203
sa(dp929
g191
g192
sg193
(I480
I640
I3
tp930
sg195
S'/mnt/Datadisk/franklin/test/realtestdataset/litImage98.jpg'
p931
sg197
S'/mnt/Datadisk/franklin/test/realtestdataset/depthImage98.jpg'
p932
sg199
S'/mnt/Datadisk/franklin/test/realtestdataset/annotation98.json'
p933
sg201
I146
sg202
g203
sa(dp934
g191
g192
sg193
(I480
I640
I3
tp935
sg195
S'/mnt/Datadisk/franklin/test/realtestdataset/litImage396.jpg'
p936
sg197
S'/mnt/Datadisk/franklin/test/realtestdataset/depthImage396.jpg'
p937
sg199
S'/mnt/Datadisk/franklin/test/realtestdataset/annotation396.json'
p938
sg201
I147
sg202
g203
sa(dp939
g191
g192
sg193
(I480
I640
I3
tp940
sg195
S'/mnt/Datadisk/franklin/test/realtestdataset/litImage6.jpg'
p941
sg197
S'/mnt/Datadisk/franklin/test/realtestdataset/depthImage6.jpg'
p942
sg199
S'/mnt/Datadisk/franklin/test/realtestdataset/annotation6.json'
p943
sg201
I148
sg202
g203
sa(dp944
g191
g192
sg193
(I480
I640
I3
tp945
sg195
S'/mnt/Datadisk/franklin/test/realtestdataset/litImage283.jpg'
p946
sg197
S'/mnt/Datadisk/franklin/test/realtestdataset/depthImage283.jpg'
p947
sg199
S'/mnt/Datadisk/franklin/test/realtestdataset/annotation283.json'
p948
sg201
I149
sg202
g203
sa(dp949
g191
g192
sg193
(I480
I640
I3
tp950
sg195
S'/mnt/Datadisk/franklin/test/realtestdataset/litImage87.jpg'
p951
sg197
S'/mnt/Datadisk/franklin/test/realtestdataset/depthImage87.jpg'
p952
sg199
S'/mnt/Datadisk/franklin/test/realtestdataset/annotation87.json'
p953
sg201
I150
sg202
g203
sa(dp954
g191
g192
sg193
(I480
I640
I3
tp955
sg195
S'/mnt/Datadisk/franklin/test/realtestdataset/litImage194.jpg'
p956
sg197
S'/mnt/Datadisk/franklin/test/realtestdataset/depthImage194.jpg'
p957
sg199
S'/mnt/Datadisk/franklin/test/realtestdataset/annotation194.json'
p958
sg201
I151
sg202
g203
sa(dp959
g191
g192
sg193
(I480
I640
I3
tp960
sg195
S'/mnt/Datadisk/franklin/test/realtestdataset/litImage372.jpg'
p961
sg197
S'/mnt/Datadisk/franklin/test/realtestdataset/depthImage372.jpg'
p962
sg199
S'/mnt/Datadisk/franklin/test/realtestdataset/annotation372.json'
p963
sg201
I152
sg202
g203
sa(dp964
g191
g192
sg193
(I480
I640
I3
tp965
sg195
S'/mnt/Datadisk/franklin/test/realtestdataset/litImage285.jpg'
p966
sg197
S'/mnt/Datadisk/franklin/test/realtestdataset/depthImage285.jpg'
p967
sg199
S'/mnt/Datadisk/franklin/test/realtestdataset/annotation285.json'
p968
sg201
I153
sg202
g203
sa(dp969
g191
g192
sg193
(I480
I640
I3
tp970
sg195
S'/mnt/Datadisk/franklin/test/realtestdataset/litImage135.jpg'
p971
sg197
S'/mnt/Datadisk/franklin/test/realtestdataset/depthImage135.jpg'
p972
sg199
S'/mnt/Datadisk/franklin/test/realtestdataset/annotation135.json'
p973
sg201
I154
sg202
g203
sa(dp974
g191
g192
sg193
(I480
I640
I3
tp975
sg195
S'/mnt/Datadisk/franklin/test/realtestdataset/litImage395.jpg'
p976
sg197
S'/mnt/Datadisk/franklin/test/realtestdataset/depthImage395.jpg'
p977
sg199
S'/mnt/Datadisk/franklin/test/realtestdataset/annotation395.json'
p978
sg201
I155
sg202
g203
sa(dp979
g191
g192
sg193
(I480
I640
I3
tp980
sg195
S'/mnt/Datadisk/franklin/test/realtestdataset/litImage290.jpg'
p981
sg197
S'/mnt/Datadisk/franklin/test/realtestdataset/depthImage290.jpg'
p982
sg199
S'/mnt/Datadisk/franklin/test/realtestdataset/annotation290.json'
p983
sg201
I156
sg202
g203
sa(dp984
g191
g192
sg193
(I480
I640
I3
tp985
sg195
S'/mnt/Datadisk/franklin/test/realtestdataset/litImage140.jpg'
p986
sg197
S'/mnt/Datadisk/franklin/test/realtestdataset/depthImage140.jpg'
p987
sg199
S'/mnt/Datadisk/franklin/test/realtestdataset/annotation140.json'
p988
sg201
I157
sg202
g203
sa(dp989
g191
g192
sg193
(I480
I640
I3
tp990
sg195
S'/mnt/Datadisk/franklin/test/realtestdataset/litImage470.jpg'
p991
sg197
S'/mnt/Datadisk/franklin/test/realtestdataset/depthImage470.jpg'
p992
sg199
S'/mnt/Datadisk/franklin/test/realtestdataset/annotation470.json'
p993
sg201
I158
sg202
g203
sa(dp994
g191
g192
sg193
(I480
I640
I3
tp995
sg195
S'/mnt/Datadisk/franklin/test/realtestdataset/litImage161.jpg'
p996
sg197
S'/mnt/Datadisk/franklin/test/realtestdataset/depthImage161.jpg'
p997
sg199
S'/mnt/Datadisk/franklin/test/realtestdataset/annotation161.json'
p998
sg201
I159
sg202
g203
sa(dp999
g191
g192
sg193
(I480
I640
I3
tp1000
sg195
S'/mnt/Datadisk/franklin/test/realtestdataset/litImage252.jpg'
p1001
sg197
S'/mnt/Datadisk/franklin/test/realtestdataset/depthImage252.jpg'
p1002
sg199
S'/mnt/Datadisk/franklin/test/realtestdataset/annotation252.json'
p1003
sg201
I160
sg202
g203
sa(dp1004
g191
g192
sg193
(I480
I640
I3
tp1005
sg195
S'/mnt/Datadisk/franklin/test/realtestdataset/litImage95.jpg'
p1006
sg197
S'/mnt/Datadisk/franklin/test/realtestdataset/depthImage95.jpg'
p1007
sg199
S'/mnt/Datadisk/franklin/test/realtestdataset/annotation95.json'
p1008
sg201
I161
sg202
g203
sa(dp1009
g191
g192
sg193
(I480
I640
I3
tp1010
sg195
S'/mnt/Datadisk/franklin/test/realtestdataset/litImage411.jpg'
p1011
sg197
S'/mnt/Datadisk/franklin/test/realtestdataset/depthImage411.jpg'
p1012
sg199
S'/mnt/Datadisk/franklin/test/realtestdataset/annotation411.json'
p1013
sg201
I162
sg202
g203
sa(dp1014
g191
g192
sg193
(I480
I640
I3
tp1015
sg195
S'/mnt/Datadisk/franklin/test/realtestdataset/litImage20.jpg'
p1016
sg197
S'/mnt/Datadisk/franklin/test/realtestdataset/depthImage20.jpg'
p1017
sg199
S'/mnt/Datadisk/franklin/test/realtestdataset/annotation20.json'
p1018
sg201
I163
sg202
g203
sa(dp1019
g191
g192
sg193
(I480
I640
I3
tp1020
sg195
S'/mnt/Datadisk/franklin/test/realtestdataset/litImage148.jpg'
p1021
sg197
S'/mnt/Datadisk/franklin/test/realtestdataset/depthImage148.jpg'
p1022
sg199
S'/mnt/Datadisk/franklin/test/realtestdataset/annotation148.json'
p1023
sg201
I164
sg202
g203
sa(dp1024
g191
g192
sg193
(I480
I640
I3
tp1025
sg195
S'/mnt/Datadisk/franklin/test/realtestdataset/litImage346.jpg'
p1026
sg197
S'/mnt/Datadisk/franklin/test/realtestdataset/depthImage346.jpg'
p1027
sg199
S'/mnt/Datadisk/franklin/test/realtestdataset/annotation346.json'
p1028
sg201
I165
sg202
g203
sa(dp1029
g191
g192
sg193
(I480
I640
I3
tp1030
sg195
S'/mnt/Datadisk/franklin/test/realtestdataset/litImage155.jpg'
p1031
sg197
S'/mnt/Datadisk/franklin/test/realtestdataset/depthImage155.jpg'
p1032
sg199
S'/mnt/Datadisk/franklin/test/realtestdataset/annotation155.json'
p1033
sg201
I166
sg202
g203
sa(dp1034
g191
g192
sg193
(I480
I640
I3
tp1035
sg195
S'/mnt/Datadisk/franklin/test/realtestdataset/litImage369.jpg'
p1036
sg197
S'/mnt/Datadisk/franklin/test/realtestdataset/depthImage369.jpg'
p1037
sg199
S'/mnt/Datadisk/franklin/test/realtestdataset/annotation369.json'
p1038
sg201
I167
sg202
g203
sa(dp1039
g191
g192
sg193
(I480
I640
I3
tp1040
sg195
S'/mnt/Datadisk/franklin/test/realtestdataset/litImage342.jpg'
p1041
sg197
S'/mnt/Datadisk/franklin/test/realtestdataset/depthImage342.jpg'
p1042
sg199
S'/mnt/Datadisk/franklin/test/realtestdataset/annotation342.json'
p1043
sg201
I168
sg202
g203
sa(dp1044
g191
g192
sg193
(I480
I640
I3
tp1045
sg195
S'/mnt/Datadisk/franklin/test/realtestdataset/litImage442.jpg'
p1046
sg197
S'/mnt/Datadisk/franklin/test/realtestdataset/depthImage442.jpg'
p1047
sg199
S'/mnt/Datadisk/franklin/test/realtestdataset/annotation442.json'
p1048
sg201
I169
sg202
g203
sa(dp1049
g191
g192
sg193
(I480
I640
I3
tp1050
sg195
S'/mnt/Datadisk/franklin/test/realtestdataset/litImage446.jpg'
p1051
sg197
S'/mnt/Datadisk/franklin/test/realtestdataset/depthImage446.jpg'
p1052
sg199
S'/mnt/Datadisk/franklin/test/realtestdataset/annotation446.json'
p1053
sg201
I170
sg202
g203
sa(dp1054
g191
g192
sg193
(I480
I640
I3
tp1055
sg195
S'/mnt/Datadisk/franklin/test/realtestdataset/litImage28.jpg'
p1056
sg197
S'/mnt/Datadisk/franklin/test/realtestdataset/depthImage28.jpg'
p1057
sg199
S'/mnt/Datadisk/franklin/test/realtestdataset/annotation28.json'
p1058
sg201
I171
sg202
g203
sa(dp1059
g191
g192
sg193
(I480
I640
I3
tp1060
sg195
S'/mnt/Datadisk/franklin/test/realtestdataset/litImage138.jpg'
p1061
sg197
S'/mnt/Datadisk/franklin/test/realtestdataset/depthImage138.jpg'
p1062
sg199
S'/mnt/Datadisk/franklin/test/realtestdataset/annotation138.json'
p1063
sg201
I172
sg202
g203
sa(dp1064
g191
g192
sg193
(I480
I640
I3
tp1065
sg195
S'/mnt/Datadisk/franklin/test/realtestdataset/litImage371.jpg'
p1066
sg197
S'/mnt/Datadisk/franklin/test/realtestdataset/depthImage371.jpg'
p1067
sg199
S'/mnt/Datadisk/franklin/test/realtestdataset/annotation371.json'
p1068
sg201
I173
sg202
g203
sa(dp1069
g191
g192
sg193
(I480
I640
I3
tp1070
sg195
S'/mnt/Datadisk/franklin/test/realtestdataset/litImage72.jpg'
p1071
sg197
S'/mnt/Datadisk/franklin/test/realtestdataset/depthImage72.jpg'
p1072
sg199
S'/mnt/Datadisk/franklin/test/realtestdataset/annotation72.json'
p1073
sg201
I174
sg202
g203
sa(dp1074
g191
g192
sg193
(I480
I640
I3
tp1075
sg195
S'/mnt/Datadisk/franklin/test/realtestdataset/litImage159.jpg'
p1076
sg197
S'/mnt/Datadisk/franklin/test/realtestdataset/depthImage159.jpg'
p1077
sg199
S'/mnt/Datadisk/franklin/test/realtestdataset/annotation159.json'
p1078
sg201
I175
sg202
g203
sa(dp1079
g191
g192
sg193
(I480
I640
I3
tp1080
sg195
S'/mnt/Datadisk/franklin/test/realtestdataset/litImage255.jpg'
p1081
sg197
S'/mnt/Datadisk/franklin/test/realtestdataset/depthImage255.jpg'
p1082
sg199
S'/mnt/Datadisk/franklin/test/realtestdataset/annotation255.json'
p1083
sg201
I176
sg202
g203
sa(dp1084
g191
g192
sg193
(I480
I640
I3
tp1085
sg195
S'/mnt/Datadisk/franklin/test/realtestdataset/litImage4.jpg'
p1086
sg197
S'/mnt/Datadisk/franklin/test/realtestdataset/depthImage4.jpg'
p1087
sg199
S'/mnt/Datadisk/franklin/test/realtestdataset/annotation4.json'
p1088
sg201
I177
sg202
g203
sa(dp1089
g191
g192
sg193
(I480
I640
I3
tp1090
sg195
S'/mnt/Datadisk/franklin/test/realtestdataset/litImage19.jpg'
p1091
sg197
S'/mnt/Datadisk/franklin/test/realtestdataset/depthImage19.jpg'
p1092
sg199
S'/mnt/Datadisk/franklin/test/realtestdataset/annotation19.json'
p1093
sg201
I178
sg202
g203
sa(dp1094
g191
g192
sg193
(I480
I640
I3
tp1095
sg195
S'/mnt/Datadisk/franklin/test/realtestdataset/litImage325.jpg'
p1096
sg197
S'/mnt/Datadisk/franklin/test/realtestdataset/depthImage325.jpg'
p1097
sg199
S'/mnt/Datadisk/franklin/test/realtestdataset/annotation325.json'
p1098
sg201
I179
sg202
g203
sa(dp1099
g191
g192
sg193
(I480
I640
I3
tp1100
sg195
S'/mnt/Datadisk/franklin/test/realtestdataset/litImage318.jpg'
p1101
sg197
S'/mnt/Datadisk/franklin/test/realtestdataset/depthImage318.jpg'
p1102
sg199
S'/mnt/Datadisk/franklin/test/realtestdataset/annotation318.json'
p1103
sg201
I180
sg202
g203
sa(dp1104
g191
g192
sg193
(I480
I640
I3
tp1105
sg195
S'/mnt/Datadisk/franklin/test/realtestdataset/litImage377.jpg'
p1106
sg197
S'/mnt/Datadisk/franklin/test/realtestdataset/depthImage377.jpg'
p1107
sg199
S'/mnt/Datadisk/franklin/test/realtestdataset/annotation377.json'
p1108
sg201
I181
sg202
g203
sa(dp1109
g191
g192
sg193
(I480
I640
I3
tp1110
sg195
S'/mnt/Datadisk/franklin/test/realtestdataset/litImage311.jpg'
p1111
sg197
S'/mnt/Datadisk/franklin/test/realtestdataset/depthImage311.jpg'
p1112
sg199
S'/mnt/Datadisk/franklin/test/realtestdataset/annotation311.json'
p1113
sg201
I182
sg202
g203
sa(dp1114
g191
g192
sg193
(I480
I640
I3
tp1115
sg195
S'/mnt/Datadisk/franklin/test/realtestdataset/litImage481.jpg'
p1116
sg197
S'/mnt/Datadisk/franklin/test/realtestdataset/depthImage481.jpg'
p1117
sg199
S'/mnt/Datadisk/franklin/test/realtestdataset/annotation481.json'
p1118
sg201
I183
sg202
g203
sa(dp1119
g191
g192
sg193
(I480
I640
I3
tp1120
sg195
S'/mnt/Datadisk/franklin/test/realtestdataset/litImage176.jpg'
p1121
sg197
S'/mnt/Datadisk/franklin/test/realtestdataset/depthImage176.jpg'
p1122
sg199
S'/mnt/Datadisk/franklin/test/realtestdataset/annotation176.json'
p1123
sg201
I184
sg202
g203
sa(dp1124
g191
g192
sg193
(I480
I640
I3
tp1125
sg195
S'/mnt/Datadisk/franklin/test/realtestdataset/litImage51.jpg'
p1126
sg197
S'/mnt/Datadisk/franklin/test/realtestdataset/depthImage51.jpg'
p1127
sg199
S'/mnt/Datadisk/franklin/test/realtestdataset/annotation51.json'
p1128
sg201
I185
sg202
g203
sa(dp1129
g191
g192
sg193
(I480
I640
I3
tp1130
sg195
S'/mnt/Datadisk/franklin/test/realtestdataset/litImage94.jpg'
p1131
sg197
S'/mnt/Datadisk/franklin/test/realtestdataset/depthImage94.jpg'
p1132
sg199
S'/mnt/Datadisk/franklin/test/realtestdataset/annotation94.json'
p1133
sg201
I186
sg202
g203
sa(dp1134
g191
g192
sg193
(I480
I640
I3
tp1135
sg195
S'/mnt/Datadisk/franklin/test/realtestdataset/litImage373.jpg'
p1136
sg197
S'/mnt/Datadisk/franklin/test/realtestdataset/depthImage373.jpg'
p1137
sg199
S'/mnt/Datadisk/franklin/test/realtestdataset/annotation373.json'
p1138
sg201
I187
sg202
g203
sa(dp1139
g191
g192
sg193
(I480
I640
I3
tp1140
sg195
S'/mnt/Datadisk/franklin/test/realtestdataset/litImage101.jpg'
p1141
sg197
S'/mnt/Datadisk/franklin/test/realtestdataset/depthImage101.jpg'
p1142
sg199
S'/mnt/Datadisk/franklin/test/realtestdataset/annotation101.json'
p1143
sg201
I188
sg202
g203
sa(dp1144
g191
g192
sg193
(I480
I640
I3
tp1145
sg195
S'/mnt/Datadisk/franklin/test/realtestdataset/litImage416.jpg'
p1146
sg197
S'/mnt/Datadisk/franklin/test/realtestdataset/depthImage416.jpg'
p1147
sg199
S'/mnt/Datadisk/franklin/test/realtestdataset/annotation416.json'
p1148
sg201
I189
sg202
g203
sa(dp1149
g191
g192
sg193
(I480
I640
I3
tp1150
sg195
S'/mnt/Datadisk/franklin/test/realtestdataset/litImage370.jpg'
p1151
sg197
S'/mnt/Datadisk/franklin/test/realtestdataset/depthImage370.jpg'
p1152
sg199
S'/mnt/Datadisk/franklin/test/realtestdataset/annotation370.json'
p1153
sg201
I190
sg202
g203
sa(dp1154
g191
g192
sg193
(I480
I640
I3
tp1155
sg195
S'/mnt/Datadisk/franklin/test/realtestdataset/litImage464.jpg'
p1156
sg197
S'/mnt/Datadisk/franklin/test/realtestdataset/depthImage464.jpg'
p1157
sg199
S'/mnt/Datadisk/franklin/test/realtestdataset/annotation464.json'
p1158
sg201
I191
sg202
g203
sa(dp1159
g191
g192
sg193
(I480
I640
I3
tp1160
sg195
S'/mnt/Datadisk/franklin/test/realtestdataset/litImage25.jpg'
p1161
sg197
S'/mnt/Datadisk/franklin/test/realtestdataset/depthImage25.jpg'
p1162
sg199
S'/mnt/Datadisk/franklin/test/realtestdataset/annotation25.json'
p1163
sg201
I192
sg202
g203
sa(dp1164
g191
g192
sg193
(I480
I640
I3
tp1165
sg195
S'/mnt/Datadisk/franklin/test/realtestdataset/litImage85.jpg'
p1166
sg197
S'/mnt/Datadisk/franklin/test/realtestdataset/depthImage85.jpg'
p1167
sg199
S'/mnt/Datadisk/franklin/test/realtestdataset/annotation85.json'
p1168
sg201
I193
sg202
g203
sa(dp1169
g191
g192
sg193
(I480
I640
I3
tp1170
sg195
S'/mnt/Datadisk/franklin/test/realtestdataset/litImage209.jpg'
p1171
sg197
S'/mnt/Datadisk/franklin/test/realtestdataset/depthImage209.jpg'
p1172
sg199
S'/mnt/Datadisk/franklin/test/realtestdataset/annotation209.json'
p1173
sg201
I194
sg202
g203
sa(dp1174
g191
g192
sg193
(I480
I640
I3
tp1175
sg195
S'/mnt/Datadisk/franklin/test/realtestdataset/litImage204.jpg'
p1176
sg197
S'/mnt/Datadisk/franklin/test/realtestdataset/depthImage204.jpg'
p1177
sg199
S'/mnt/Datadisk/franklin/test/realtestdataset/annotation204.json'
p1178
sg201
I195
sg202
g203
sa(dp1179
g191
g192
sg193
(I480
I640
I3
tp1180
sg195
S'/mnt/Datadisk/franklin/test/realtestdataset/litImage265.jpg'
p1181
sg197
S'/mnt/Datadisk/franklin/test/realtestdataset/depthImage265.jpg'
p1182
sg199
S'/mnt/Datadisk/franklin/test/realtestdataset/annotation265.json'
p1183
sg201
I196
sg202
g203
sa(dp1184
g191
g192
sg193
(I480
I640
I3
tp1185
sg195
S'/mnt/Datadisk/franklin/test/realtestdataset/litImage131.jpg'
p1186
sg197
S'/mnt/Datadisk/franklin/test/realtestdataset/depthImage131.jpg'
p1187
sg199
S'/mnt/Datadisk/franklin/test/realtestdataset/annotation131.json'
p1188
sg201
I197
sg202
g203
sa(dp1189
g191
g192
sg193
(I480
I640
I3
tp1190
sg195
S'/mnt/Datadisk/franklin/test/realtestdataset/litImage353.jpg'
p1191
sg197
S'/mnt/Datadisk/franklin/test/realtestdataset/depthImage353.jpg'
p1192
sg199
S'/mnt/Datadisk/franklin/test/realtestdataset/annotation353.json'
p1193
sg201
I198
sg202
g203
sa(dp1194
g191
g192
sg193
(I480
I640
I3
tp1195
sg195
S'/mnt/Datadisk/franklin/test/realtestdataset/litImage427.jpg'
p1196
sg197
S'/mnt/Datadisk/franklin/test/realtestdataset/depthImage427.jpg'
p1197
sg199
S'/mnt/Datadisk/franklin/test/realtestdataset/annotation427.json'
p1198
sg201
I199
sg202
g203
sa(dp1199
g191
g192
sg193
(I480
I640
I3
tp1200
sg195
S'/mnt/Datadisk/franklin/test/realtestdataset/litImage366.jpg'
p1201
sg197
S'/mnt/Datadisk/franklin/test/realtestdataset/depthImage366.jpg'
p1202
sg199
S'/mnt/Datadisk/franklin/test/realtestdataset/annotation366.json'
p1203
sg201
I200
sg202
g203
sa(dp1204
g191
g192
sg193
(I480
I640
I3
tp1205
sg195
S'/mnt/Datadisk/franklin/test/realtestdataset/litImage367.jpg'
p1206
sg197
S'/mnt/Datadisk/franklin/test/realtestdataset/depthImage367.jpg'
p1207
sg199
S'/mnt/Datadisk/franklin/test/realtestdataset/annotation367.json'
p1208
sg201
I201
sg202
g203
sa(dp1209
g191
g192
sg193
(I480
I640
I3
tp1210
sg195
S'/mnt/Datadisk/franklin/test/realtestdataset/litImage250.jpg'
p1211
sg197
S'/mnt/Datadisk/franklin/test/realtestdataset/depthImage250.jpg'
p1212
sg199
S'/mnt/Datadisk/franklin/test/realtestdataset/annotation250.json'
p1213
sg201
I202
sg202
g203
sa(dp1214
g191
g192
sg193
(I480
I640
I3
tp1215
sg195
S'/mnt/Datadisk/franklin/test/realtestdataset/litImage273.jpg'
p1216
sg197
S'/mnt/Datadisk/franklin/test/realtestdataset/depthImage273.jpg'
p1217
sg199
S'/mnt/Datadisk/franklin/test/realtestdataset/annotation273.json'
p1218
sg201
I203
sg202
g203
sa(dp1219
g191
g192
sg193
(I480
I640
I3
tp1220
sg195
S'/mnt/Datadisk/franklin/test/realtestdataset/litImage376.jpg'
p1221
sg197
S'/mnt/Datadisk/franklin/test/realtestdataset/depthImage376.jpg'
p1222
sg199
S'/mnt/Datadisk/franklin/test/realtestdataset/annotation376.json'
p1223
sg201
I204
sg202
g203
sa(dp1224
g191
g192
sg193
(I480
I640
I3
tp1225
sg195
S'/mnt/Datadisk/franklin/test/realtestdataset/litImage319.jpg'
p1226
sg197
S'/mnt/Datadisk/franklin/test/realtestdataset/depthImage319.jpg'
p1227
sg199
S'/mnt/Datadisk/franklin/test/realtestdataset/annotation319.json'
p1228
sg201
I205
sg202
g203
sa(dp1229
g191
g192
sg193
(I480
I640
I3
tp1230
sg195
S'/mnt/Datadisk/franklin/test/realtestdataset/litImage2.jpg'
p1231
sg197
S'/mnt/Datadisk/franklin/test/realtestdataset/depthImage2.jpg'
p1232
sg199
S'/mnt/Datadisk/franklin/test/realtestdataset/annotation2.json'
p1233
sg201
I206
sg202
g203
sa(dp1234
g191
g192
sg193
(I480
I640
I3
tp1235
sg195
S'/mnt/Datadisk/franklin/test/realtestdataset/litImage458.jpg'
p1236
sg197
S'/mnt/Datadisk/franklin/test/realtestdataset/depthImage458.jpg'
p1237
sg199
S'/mnt/Datadisk/franklin/test/realtestdataset/annotation458.json'
p1238
sg201
I207
sg202
g203
sa(dp1239
g191
g192
sg193
(I480
I640
I3
tp1240
sg195
S'/mnt/Datadisk/franklin/test/realtestdataset/litImage330.jpg'
p1241
sg197
S'/mnt/Datadisk/franklin/test/realtestdataset/depthImage330.jpg'
p1242
sg199
S'/mnt/Datadisk/franklin/test/realtestdataset/annotation330.json'
p1243
sg201
I208
sg202
g203
sa(dp1244
g191
g192
sg193
(I480
I640
I3
tp1245
sg195
S'/mnt/Datadisk/franklin/test/realtestdataset/litImage473.jpg'
p1246
sg197
S'/mnt/Datadisk/franklin/test/realtestdataset/depthImage473.jpg'
p1247
sg199
S'/mnt/Datadisk/franklin/test/realtestdataset/annotation473.json'
p1248
sg201
I209
sg202
g203
sa(dp1249
g191
g192
sg193
(I480
I640
I3
tp1250
sg195
S'/mnt/Datadisk/franklin/test/realtestdataset/litImage225.jpg'
p1251
sg197
S'/mnt/Datadisk/franklin/test/realtestdataset/depthImage225.jpg'
p1252
sg199
S'/mnt/Datadisk/franklin/test/realtestdataset/annotation225.json'
p1253
sg201
I210
sg202
g203
sa(dp1254
g191
g192
sg193
(I480
I640
I3
tp1255
sg195
S'/mnt/Datadisk/franklin/test/realtestdataset/litImage267.jpg'
p1256
sg197
S'/mnt/Datadisk/franklin/test/realtestdataset/depthImage267.jpg'
p1257
sg199
S'/mnt/Datadisk/franklin/test/realtestdataset/annotation267.json'
p1258
sg201
I211
sg202
g203
sa(dp1259
g191
g192
sg193
(I480
I640
I3
tp1260
sg195
S'/mnt/Datadisk/franklin/test/realtestdataset/litImage192.jpg'
p1261
sg197
S'/mnt/Datadisk/franklin/test/realtestdataset/depthImage192.jpg'
p1262
sg199
S'/mnt/Datadisk/franklin/test/realtestdataset/annotation192.json'
p1263
sg201
I212
sg202
g203
sa(dp1264
g191
g192
sg193
(I480
I640
I3
tp1265
sg195
S'/mnt/Datadisk/franklin/test/realtestdataset/litImage57.jpg'
p1266
sg197
S'/mnt/Datadisk/franklin/test/realtestdataset/depthImage57.jpg'
p1267
sg199
S'/mnt/Datadisk/franklin/test/realtestdataset/annotation57.json'
p1268
sg201
I213
sg202
g203
sa(dp1269
g191
g192
sg193
(I480
I640
I3
tp1270
sg195
S'/mnt/Datadisk/franklin/test/realtestdataset/litImage124.jpg'
p1271
sg197
S'/mnt/Datadisk/franklin/test/realtestdataset/depthImage124.jpg'
p1272
sg199
S'/mnt/Datadisk/franklin/test/realtestdataset/annotation124.json'
p1273
sg201
I214
sg202
g203
sa(dp1274
g191
g192
sg193
(I480
I640
I3
tp1275
sg195
S'/mnt/Datadisk/franklin/test/realtestdataset/litImage195.jpg'
p1276
sg197
S'/mnt/Datadisk/franklin/test/realtestdataset/depthImage195.jpg'
p1277
sg199
S'/mnt/Datadisk/franklin/test/realtestdataset/annotation195.json'
p1278
sg201
I215
sg202
g203
sa(dp1279
g191
g192
sg193
(I480
I640
I3
tp1280
sg195
S'/mnt/Datadisk/franklin/test/realtestdataset/litImage29.jpg'
p1281
sg197
S'/mnt/Datadisk/franklin/test/realtestdataset/depthImage29.jpg'
p1282
sg199
S'/mnt/Datadisk/franklin/test/realtestdataset/annotation29.json'
p1283
sg201
I216
sg202
g203
sa(dp1284
g191
g192
sg193
(I480
I640
I3
tp1285
sg195
S'/mnt/Datadisk/franklin/test/realtestdataset/litImage186.jpg'
p1286
sg197
S'/mnt/Datadisk/franklin/test/realtestdataset/depthImage186.jpg'
p1287
sg199
S'/mnt/Datadisk/franklin/test/realtestdataset/annotation186.json'
p1288
sg201
I217
sg202
g203
sa(dp1289
g191
g192
sg193
(I480
I640
I3
tp1290
sg195
S'/mnt/Datadisk/franklin/test/realtestdataset/litImage31.jpg'
p1291
sg197
S'/mnt/Datadisk/franklin/test/realtestdataset/depthImage31.jpg'
p1292
sg199
S'/mnt/Datadisk/franklin/test/realtestdataset/annotation31.json'
p1293
sg201
I218
sg202
g203
sa(dp1294
g191
g192
sg193
(I480
I640
I3
tp1295
sg195
S'/mnt/Datadisk/franklin/test/realtestdataset/litImage381.jpg'
p1296
sg197
S'/mnt/Datadisk/franklin/test/realtestdataset/depthImage381.jpg'
p1297
sg199
S'/mnt/Datadisk/franklin/test/realtestdataset/annotation381.json'
p1298
sg201
I219
sg202
g203
sa(dp1299
g191
g192
sg193
(I480
I640
I3
tp1300
sg195
S'/mnt/Datadisk/franklin/test/realtestdataset/litImage96.jpg'
p1301
sg197
S'/mnt/Datadisk/franklin/test/realtestdataset/depthImage96.jpg'
p1302
sg199
S'/mnt/Datadisk/franklin/test/realtestdataset/annotation96.json'
p1303
sg201
I220
sg202
g203
sa(dp1304
g191
g192
sg193
(I480
I640
I3
tp1305
sg195
S'/mnt/Datadisk/franklin/test/realtestdataset/litImage58.jpg'
p1306
sg197
S'/mnt/Datadisk/franklin/test/realtestdataset/depthImage58.jpg'
p1307
sg199
S'/mnt/Datadisk/franklin/test/realtestdataset/annotation58.json'
p1308
sg201
I221
sg202
g203
sa(dp1309
g191
g192
sg193
(I480
I640
I3
tp1310
sg195
S'/mnt/Datadisk/franklin/test/realtestdataset/litImage405.jpg'
p1311
sg197
S'/mnt/Datadisk/franklin/test/realtestdataset/depthImage405.jpg'
p1312
sg199
S'/mnt/Datadisk/franklin/test/realtestdataset/annotation405.json'
p1313
sg201
I222
sg202
g203
sa(dp1314
g191
g192
sg193
(I480
I640
I3
tp1315
sg195
S'/mnt/Datadisk/franklin/test/realtestdataset/litImage297.jpg'
p1316
sg197
S'/mnt/Datadisk/franklin/test/realtestdataset/depthImage297.jpg'
p1317
sg199
S'/mnt/Datadisk/franklin/test/realtestdataset/annotation297.json'
p1318
sg201
I223
sg202
g203
sa(dp1319
g191
g192
sg193
(I480
I640
I3
tp1320
sg195
S'/mnt/Datadisk/franklin/test/realtestdataset/litImage81.jpg'
p1321
sg197
S'/mnt/Datadisk/franklin/test/realtestdataset/depthImage81.jpg'
p1322
sg199
S'/mnt/Datadisk/franklin/test/realtestdataset/annotation81.json'
p1323
sg201
I224
sg202
g203
sa(dp1324
g191
g192
sg193
(I480
I640
I3
tp1325
sg195
S'/mnt/Datadisk/franklin/test/realtestdataset/litImage55.jpg'
p1326
sg197
S'/mnt/Datadisk/franklin/test/realtestdataset/depthImage55.jpg'
p1327
sg199
S'/mnt/Datadisk/franklin/test/realtestdataset/annotation55.json'
p1328
sg201
I225
sg202
g203
sa(dp1329
g191
g192
sg193
(I480
I640
I3
tp1330
sg195
S'/mnt/Datadisk/franklin/test/realtestdataset/litImage88.jpg'
p1331
sg197
S'/mnt/Datadisk/franklin/test/realtestdataset/depthImage88.jpg'
p1332
sg199
S'/mnt/Datadisk/franklin/test/realtestdataset/annotation88.json'
p1333
sg201
I226
sg202
g203
sa(dp1334
g191
g192
sg193
(I480
I640
I3
tp1335
sg195
S'/mnt/Datadisk/franklin/test/realtestdataset/litImage224.jpg'
p1336
sg197
S'/mnt/Datadisk/franklin/test/realtestdataset/depthImage224.jpg'
p1337
sg199
S'/mnt/Datadisk/franklin/test/realtestdataset/annotation224.json'
p1338
sg201
I227
sg202
g203
sa(dp1339
g191
g192
sg193
(I480
I640
I3
tp1340
sg195
S'/mnt/Datadisk/franklin/test/realtestdataset/litImage129.jpg'
p1341
sg197
S'/mnt/Datadisk/franklin/test/realtestdataset/depthImage129.jpg'
p1342
sg199
S'/mnt/Datadisk/franklin/test/realtestdataset/annotation129.json'
p1343
sg201
I228
sg202
g203
sa(dp1344
g191
g192
sg193
(I480
I640
I3
tp1345
sg195
S'/mnt/Datadisk/franklin/test/realtestdataset/litImage211.jpg'
p1346
sg197
S'/mnt/Datadisk/franklin/test/realtestdataset/depthImage211.jpg'
p1347
sg199
S'/mnt/Datadisk/franklin/test/realtestdataset/annotation211.json'
p1348
sg201
I229
sg202
g203
sa(dp1349
g191
g192
sg193
(I480
I640
I3
tp1350
sg195
S'/mnt/Datadisk/franklin/test/realtestdataset/litImage286.jpg'
p1351
sg197
S'/mnt/Datadisk/franklin/test/realtestdataset/depthImage286.jpg'
p1352
sg199
S'/mnt/Datadisk/franklin/test/realtestdataset/annotation286.json'
p1353
sg201
I230
sg202
g203
sa(dp1354
g191
g192
sg193
(I480
I640
I3
tp1355
sg195
S'/mnt/Datadisk/franklin/test/realtestdataset/litImage483.jpg'
p1356
sg197
S'/mnt/Datadisk/franklin/test/realtestdataset/depthImage483.jpg'
p1357
sg199
S'/mnt/Datadisk/franklin/test/realtestdataset/annotation483.json'
p1358
sg201
I231
sg202
g203
sa(dp1359
g191
g192
sg193
(I480
I640
I3
tp1360
sg195
S'/mnt/Datadisk/franklin/test/realtestdataset/litImage482.jpg'
p1361
sg197
S'/mnt/Datadisk/franklin/test/realtestdataset/depthImage482.jpg'
p1362
sg199
S'/mnt/Datadisk/franklin/test/realtestdataset/annotation482.json'
p1363
sg201
I232
sg202
g203
sa(dp1364
g191
g192
sg193
(I480
I640
I3
tp1365
sg195
S'/mnt/Datadisk/franklin/test/realtestdataset/litImage480.jpg'
p1366
sg197
S'/mnt/Datadisk/franklin/test/realtestdataset/depthImage480.jpg'
p1367
sg199
S'/mnt/Datadisk/franklin/test/realtestdataset/annotation480.json'
p1368
sg201
I233
sg202
g203
sa(dp1369
g191
g192
sg193
(I480
I640
I3
tp1370
sg195
S'/mnt/Datadisk/franklin/test/realtestdataset/litImage48.jpg'
p1371
sg197
S'/mnt/Datadisk/franklin/test/realtestdataset/depthImage48.jpg'
p1372
sg199
S'/mnt/Datadisk/franklin/test/realtestdataset/annotation48.json'
p1373
sg201
I234
sg202
g203
sa(dp1374
g191
g192
sg193
(I480
I640
I3
tp1375
sg195
S'/mnt/Datadisk/franklin/test/realtestdataset/litImage451.jpg'
p1376
sg197
S'/mnt/Datadisk/franklin/test/realtestdataset/depthImage451.jpg'
p1377
sg199
S'/mnt/Datadisk/franklin/test/realtestdataset/annotation451.json'
p1378
sg201
I235
sg202
g203
sa(dp1379
g191
g192
sg193
(I480
I640
I3
tp1380
sg195
S'/mnt/Datadisk/franklin/test/realtestdataset/litImage401.jpg'
p1381
sg197
S'/mnt/Datadisk/franklin/test/realtestdataset/depthImage401.jpg'
p1382
sg199
S'/mnt/Datadisk/franklin/test/realtestdataset/annotation401.json'
p1383
sg201
I236
sg202
g203
sa(dp1384
g191
g192
sg193
(I480
I640
I3
tp1385
sg195
S'/mnt/Datadisk/franklin/test/realtestdataset/litImage160.jpg'
p1386
sg197
S'/mnt/Datadisk/franklin/test/realtestdataset/depthImage160.jpg'
p1387
sg199
S'/mnt/Datadisk/franklin/test/realtestdataset/annotation160.json'
p1388
sg201
I237
sg202
g203
sa(dp1389
g191
g192
sg193
(I480
I640
I3
tp1390
sg195
S'/mnt/Datadisk/franklin/test/realtestdataset/litImage275.jpg'
p1391
sg197
S'/mnt/Datadisk/franklin/test/realtestdataset/depthImage275.jpg'
p1392
sg199
S'/mnt/Datadisk/franklin/test/realtestdataset/annotation275.json'
p1393
sg201
I238
sg202
g203
sa(dp1394
g191
g192
sg193
(I480
I640
I3
tp1395
sg195
S'/mnt/Datadisk/franklin/test/realtestdataset/litImage471.jpg'
p1396
sg197
S'/mnt/Datadisk/franklin/test/realtestdataset/depthImage471.jpg'
p1397
sg199
S'/mnt/Datadisk/franklin/test/realtestdataset/annotation471.json'
p1398
sg201
I239
sg202
g203
sa(dp1399
g191
g192
sg193
(I480
I640
I3
tp1400
sg195
S'/mnt/Datadisk/franklin/test/realtestdataset/litImage447.jpg'
p1401
sg197
S'/mnt/Datadisk/franklin/test/realtestdataset/depthImage447.jpg'
p1402
sg199
S'/mnt/Datadisk/franklin/test/realtestdataset/annotation447.json'
p1403
sg201
I240
sg202
g203
sa(dp1404
g191
g192
sg193
(I480
I640
I3
tp1405
sg195
S'/mnt/Datadisk/franklin/test/realtestdataset/litImage169.jpg'
p1406
sg197
S'/mnt/Datadisk/franklin/test/realtestdataset/depthImage169.jpg'
p1407
sg199
S'/mnt/Datadisk/franklin/test/realtestdataset/annotation169.json'
p1408
sg201
I241
sg202
g203
sa(dp1409
g191
g192
sg193
(I480
I640
I3
tp1410
sg195
S'/mnt/Datadisk/franklin/test/realtestdataset/litImage334.jpg'
p1411
sg197
S'/mnt/Datadisk/franklin/test/realtestdataset/depthImage334.jpg'
p1412
sg199
S'/mnt/Datadisk/franklin/test/realtestdataset/annotation334.json'
p1413
sg201
I242
sg202
g203
sa(dp1414
g191
g192
sg193
(I480
I640
I3
tp1415
sg195
S'/mnt/Datadisk/franklin/test/realtestdataset/litImage310.jpg'
p1416
sg197
S'/mnt/Datadisk/franklin/test/realtestdataset/depthImage310.jpg'
p1417
sg199
S'/mnt/Datadisk/franklin/test/realtestdataset/annotation310.json'
p1418
sg201
I243
sg202
g203
sa(dp1419
g191
g192
sg193
(I480
I640
I3
tp1420
sg195
S'/mnt/Datadisk/franklin/test/realtestdataset/litImage42.jpg'
p1421
sg197
S'/mnt/Datadisk/franklin/test/realtestdataset/depthImage42.jpg'
p1422
sg199
S'/mnt/Datadisk/franklin/test/realtestdataset/annotation42.json'
p1423
sg201
I244
sg202
g203
sa(dp1424
g191
g192
sg193
(I480
I640
I3
tp1425
sg195
S'/mnt/Datadisk/franklin/test/realtestdataset/litImage54.jpg'
p1426
sg197
S'/mnt/Datadisk/franklin/test/realtestdataset/depthImage54.jpg'
p1427
sg199
S'/mnt/Datadisk/franklin/test/realtestdataset/annotation54.json'
p1428
sg201
I245
sg202
g203
sa(dp1429
g191
g192
sg193
(I480
I640
I3
tp1430
sg195
S'/mnt/Datadisk/franklin/test/realtestdataset/litImage287.jpg'
p1431
sg197
S'/mnt/Datadisk/franklin/test/realtestdataset/depthImage287.jpg'
p1432
sg199
S'/mnt/Datadisk/franklin/test/realtestdataset/annotation287.json'
p1433
sg201
I246
sg202
g203
sa(dp1434
g191
g192
sg193
(I480
I640
I3
tp1435
sg195
S'/mnt/Datadisk/franklin/test/realtestdataset/litImage49.jpg'
p1436
sg197
S'/mnt/Datadisk/franklin/test/realtestdataset/depthImage49.jpg'
p1437
sg199
S'/mnt/Datadisk/franklin/test/realtestdataset/annotation49.json'
p1438
sg201
I247
sg202
g203
sa(dp1439
g191
g192
sg193
(I480
I640
I3
tp1440
sg195
S'/mnt/Datadisk/franklin/test/realtestdataset/litImage233.jpg'
p1441
sg197
S'/mnt/Datadisk/franklin/test/realtestdataset/depthImage233.jpg'
p1442
sg199
S'/mnt/Datadisk/franklin/test/realtestdataset/annotation233.json'
p1443
sg201
I248
sg202
g203
sa(dp1444
g191
g192
sg193
(I480
I640
I3
tp1445
sg195
S'/mnt/Datadisk/franklin/test/realtestdataset/litImage443.jpg'
p1446
sg197
S'/mnt/Datadisk/franklin/test/realtestdataset/depthImage443.jpg'
p1447
sg199
S'/mnt/Datadisk/franklin/test/realtestdataset/annotation443.json'
p1448
sg201
I249
sg202
g203
sa(dp1449
g191
g192
sg193
(I480
I640
I3
tp1450
sg195
S'/mnt/Datadisk/franklin/test/realtestdataset/litImage47.jpg'
p1451
sg197
S'/mnt/Datadisk/franklin/test/realtestdataset/depthImage47.jpg'
p1452
sg199
S'/mnt/Datadisk/franklin/test/realtestdataset/annotation47.json'
p1453
sg201
I250
sg202
g203
sa(dp1454
g191
g192
sg193
(I480
I640
I3
tp1455
sg195
S'/mnt/Datadisk/franklin/test/realtestdataset/litImage56.jpg'
p1456
sg197
S'/mnt/Datadisk/franklin/test/realtestdataset/depthImage56.jpg'
p1457
sg199
S'/mnt/Datadisk/franklin/test/realtestdataset/annotation56.json'
p1458
sg201
I251
sg202
g203
sa(dp1459
g191
g192
sg193
(I480
I640
I3
tp1460
sg195
S'/mnt/Datadisk/franklin/test/realtestdataset/litImage113.jpg'
p1461
sg197
S'/mnt/Datadisk/franklin/test/realtestdataset/depthImage113.jpg'
p1462
sg199
S'/mnt/Datadisk/franklin/test/realtestdataset/annotation113.json'
p1463
sg201
I252
sg202
g203
sa(dp1464
g191
g192
sg193
(I480
I640
I3
tp1465
sg195
S'/mnt/Datadisk/franklin/test/realtestdataset/litImage158.jpg'
p1466
sg197
S'/mnt/Datadisk/franklin/test/realtestdataset/depthImage158.jpg'
p1467
sg199
S'/mnt/Datadisk/franklin/test/realtestdataset/annotation158.json'
p1468
sg201
I253
sg202
g203
sa(dp1469
g191
g192
sg193
(I480
I640
I3
tp1470
sg195
S'/mnt/Datadisk/franklin/test/realtestdataset/litImage360.jpg'
p1471
sg197
S'/mnt/Datadisk/franklin/test/realtestdataset/depthImage360.jpg'
p1472
sg199
S'/mnt/Datadisk/franklin/test/realtestdataset/annotation360.json'
p1473
sg201
I254
sg202
g203
sa(dp1474
g191
g192
sg193
(I480
I640
I3
tp1475
sg195
S'/mnt/Datadisk/franklin/test/realtestdataset/litImage332.jpg'
p1476
sg197
S'/mnt/Datadisk/franklin/test/realtestdataset/depthImage332.jpg'
p1477
sg199
S'/mnt/Datadisk/franklin/test/realtestdataset/annotation332.json'
p1478
sg201
I255
sg202
g203
sa(dp1479
g191
g192
sg193
(I480
I640
I3
tp1480
sg195
S'/mnt/Datadisk/franklin/test/realtestdataset/litImage214.jpg'
p1481
sg197
S'/mnt/Datadisk/franklin/test/realtestdataset/depthImage214.jpg'
p1482
sg199
S'/mnt/Datadisk/franklin/test/realtestdataset/annotation214.json'
p1483
sg201
I256
sg202
g203
sa(dp1484
g191
g192
sg193
(I480
I640
I3
tp1485
sg195
S'/mnt/Datadisk/franklin/test/realtestdataset/litImage385.jpg'
p1486
sg197
S'/mnt/Datadisk/franklin/test/realtestdataset/depthImage385.jpg'
p1487
sg199
S'/mnt/Datadisk/franklin/test/realtestdataset/annotation385.json'
p1488
sg201
I257
sg202
g203
sa(dp1489
g191
g192
sg193
(I480
I640
I3
tp1490
sg195
S'/mnt/Datadisk/franklin/test/realtestdataset/litImage8.jpg'
p1491
sg197
S'/mnt/Datadisk/franklin/test/realtestdataset/depthImage8.jpg'
p1492
sg199
S'/mnt/Datadisk/franklin/test/realtestdataset/annotation8.json'
p1493
sg201
I258
sg202
g203
sa(dp1494
g191
g192
sg193
(I480
I640
I3
tp1495
sg195
S'/mnt/Datadisk/franklin/test/realtestdataset/litImage193.jpg'
p1496
sg197
S'/mnt/Datadisk/franklin/test/realtestdataset/depthImage193.jpg'
p1497
sg199
S'/mnt/Datadisk/franklin/test/realtestdataset/annotation193.json'
p1498
sg201
I259
sg202
g203
sa(dp1499
g191
g192
sg193
(I480
I640
I3
tp1500
sg195
S'/mnt/Datadisk/franklin/test/realtestdataset/litImage277.jpg'
p1501
sg197
S'/mnt/Datadisk/franklin/test/realtestdataset/depthImage277.jpg'
p1502
sg199
S'/mnt/Datadisk/franklin/test/realtestdataset/annotation277.json'
p1503
sg201
I260
sg202
g203
sa(dp1504
g191
g192
sg193
(I480
I640
I3
tp1505
sg195
S'/mnt/Datadisk/franklin/test/realtestdataset/litImage121.jpg'
p1506
sg197
S'/mnt/Datadisk/franklin/test/realtestdataset/depthImage121.jpg'
p1507
sg199
S'/mnt/Datadisk/franklin/test/realtestdataset/annotation121.json'
p1508
sg201
I261
sg202
g203
sa(dp1509
g191
g192
sg193
(I480
I640
I3
tp1510
sg195
S'/mnt/Datadisk/franklin/test/realtestdataset/litImage383.jpg'
p1511
sg197
S'/mnt/Datadisk/franklin/test/realtestdataset/depthImage383.jpg'
p1512
sg199
S'/mnt/Datadisk/franklin/test/realtestdataset/annotation383.json'
p1513
sg201
I262
sg202
g203
sa(dp1514
g191
g192
sg193
(I480
I640
I3
tp1515
sg195
S'/mnt/Datadisk/franklin/test/realtestdataset/litImage210.jpg'
p1516
sg197
S'/mnt/Datadisk/franklin/test/realtestdataset/depthImage210.jpg'
p1517
sg199
S'/mnt/Datadisk/franklin/test/realtestdataset/annotation210.json'
p1518
sg201
I263
sg202
g203
sa(dp1519
g191
g192
sg193
(I480
I640
I3
tp1520
sg195
S'/mnt/Datadisk/franklin/test/realtestdataset/litImage36.jpg'
p1521
sg197
S'/mnt/Datadisk/franklin/test/realtestdataset/depthImage36.jpg'
p1522
sg199
S'/mnt/Datadisk/franklin/test/realtestdataset/annotation36.json'
p1523
sg201
I264
sg202
g203
sa(dp1524
g191
g192
sg193
(I480
I640
I3
tp1525
sg195
S'/mnt/Datadisk/franklin/test/realtestdataset/litImage260.jpg'
p1526
sg197
S'/mnt/Datadisk/franklin/test/realtestdataset/depthImage260.jpg'
p1527
sg199
S'/mnt/Datadisk/franklin/test/realtestdataset/annotation260.json'
p1528
sg201
I265
sg202
g203
sa(dp1529
g191
g192
sg193
(I480
I640
I3
tp1530
sg195
S'/mnt/Datadisk/franklin/test/realtestdataset/litImage433.jpg'
p1531
sg197
S'/mnt/Datadisk/franklin/test/realtestdataset/depthImage433.jpg'
p1532
sg199
S'/mnt/Datadisk/franklin/test/realtestdataset/annotation433.json'
p1533
sg201
I266
sg202
g203
sa(dp1534
g191
g192
sg193
(I480
I640
I3
tp1535
sg195
S'/mnt/Datadisk/franklin/test/realtestdataset/litImage435.jpg'
p1536
sg197
S'/mnt/Datadisk/franklin/test/realtestdataset/depthImage435.jpg'
p1537
sg199
S'/mnt/Datadisk/franklin/test/realtestdataset/annotation435.json'
p1538
sg201
I267
sg202
g203
sa(dp1539
g191
g192
sg193
(I480
I640
I3
tp1540
sg195
S'/mnt/Datadisk/franklin/test/realtestdataset/litImage170.jpg'
p1541
sg197
S'/mnt/Datadisk/franklin/test/realtestdataset/depthImage170.jpg'
p1542
sg199
S'/mnt/Datadisk/franklin/test/realtestdataset/annotation170.json'
p1543
sg201
I268
sg202
g203
sa(dp1544
g191
g192
sg193
(I480
I640
I3
tp1545
sg195
S'/mnt/Datadisk/franklin/test/realtestdataset/litImage278.jpg'
p1546
sg197
S'/mnt/Datadisk/franklin/test/realtestdataset/depthImage278.jpg'
p1547
sg199
S'/mnt/Datadisk/franklin/test/realtestdataset/annotation278.json'
p1548
sg201
I269
sg202
g203
sa(dp1549
g191
g192
sg193
(I480
I640
I3
tp1550
sg195
S'/mnt/Datadisk/franklin/test/realtestdataset/litImage439.jpg'
p1551
sg197
S'/mnt/Datadisk/franklin/test/realtestdataset/depthImage439.jpg'
p1552
sg199
S'/mnt/Datadisk/franklin/test/realtestdataset/annotation439.json'
p1553
sg201
I270
sg202
g203
sa(dp1554
g191
g192
sg193
(I480
I640
I3
tp1555
sg195
S'/mnt/Datadisk/franklin/test/realtestdataset/litImage417.jpg'
p1556
sg197
S'/mnt/Datadisk/franklin/test/realtestdataset/depthImage417.jpg'
p1557
sg199
S'/mnt/Datadisk/franklin/test/realtestdataset/annotation417.json'
p1558
sg201
I271
sg202
g203
sa(dp1559
g191
g192
sg193
(I480
I640
I3
tp1560
sg195
S'/mnt/Datadisk/franklin/test/realtestdataset/litImage272.jpg'
p1561
sg197
S'/mnt/Datadisk/franklin/test/realtestdataset/depthImage272.jpg'
p1562
sg199
S'/mnt/Datadisk/franklin/test/realtestdataset/annotation272.json'
p1563
sg201
I272
sg202
g203
sa(dp1564
g191
g192
sg193
(I480
I640
I3
tp1565
sg195
S'/mnt/Datadisk/franklin/test/realtestdataset/litImage315.jpg'
p1566
sg197
S'/mnt/Datadisk/franklin/test/realtestdataset/depthImage315.jpg'
p1567
sg199
S'/mnt/Datadisk/franklin/test/realtestdataset/annotation315.json'
p1568
sg201
I273
sg202
g203
sa(dp1569
g191
g192
sg193
(I480
I640
I3
tp1570
sg195
S'/mnt/Datadisk/franklin/test/realtestdataset/litImage394.jpg'
p1571
sg197
S'/mnt/Datadisk/franklin/test/realtestdataset/depthImage394.jpg'
p1572
sg199
S'/mnt/Datadisk/franklin/test/realtestdataset/annotation394.json'
p1573
sg201
I274
sg202
g203
sa(dp1574
g191
g192
sg193
(I480
I640
I3
tp1575
sg195
S'/mnt/Datadisk/franklin/test/realtestdataset/litImage222.jpg'
p1576
sg197
S'/mnt/Datadisk/franklin/test/realtestdataset/depthImage222.jpg'
p1577
sg199
S'/mnt/Datadisk/franklin/test/realtestdataset/annotation222.json'
p1578
sg201
I275
sg202
g203
sa(dp1579
g191
g192
sg193
(I480
I640
I3
tp1580
sg195
S'/mnt/Datadisk/franklin/test/realtestdataset/litImage45.jpg'
p1581
sg197
S'/mnt/Datadisk/franklin/test/realtestdataset/depthImage45.jpg'
p1582
sg199
S'/mnt/Datadisk/franklin/test/realtestdataset/annotation45.json'
p1583
sg201
I276
sg202
g203
sa(dp1584
g191
g192
sg193
(I480
I640
I3
tp1585
sg195
S'/mnt/Datadisk/franklin/test/realtestdataset/litImage460.jpg'
p1586
sg197
S'/mnt/Datadisk/franklin/test/realtestdataset/depthImage460.jpg'
p1587
sg199
S'/mnt/Datadisk/franklin/test/realtestdataset/annotation460.json'
p1588
sg201
I277
sg202
g203
sa(dp1589
g191
g192
sg193
(I480
I640
I3
tp1590
sg195
S'/mnt/Datadisk/franklin/test/realtestdataset/litImage196.jpg'
p1591
sg197
S'/mnt/Datadisk/franklin/test/realtestdataset/depthImage196.jpg'
p1592
sg199
S'/mnt/Datadisk/franklin/test/realtestdataset/annotation196.json'
p1593
sg201
I278
sg202
g203
sa(dp1594
g191
g192
sg193
(I480
I640
I3
tp1595
sg195
S'/mnt/Datadisk/franklin/test/realtestdataset/litImage78.jpg'
p1596
sg197
S'/mnt/Datadisk/franklin/test/realtestdataset/depthImage78.jpg'
p1597
sg199
S'/mnt/Datadisk/franklin/test/realtestdataset/annotation78.json'
p1598
sg201
I279
sg202
g203
sa(dp1599
g191
g192
sg193
(I480
I640
I3
tp1600
sg195
S'/mnt/Datadisk/franklin/test/realtestdataset/litImage139.jpg'
p1601
sg197
S'/mnt/Datadisk/franklin/test/realtestdataset/depthImage139.jpg'
p1602
sg199
S'/mnt/Datadisk/franklin/test/realtestdataset/annotation139.json'
p1603
sg201
I280
sg202
g203
sa(dp1604
g191
g192
sg193
(I480
I640
I3
tp1605
sg195
S'/mnt/Datadisk/franklin/test/realtestdataset/litImage466.jpg'
p1606
sg197
S'/mnt/Datadisk/franklin/test/realtestdataset/depthImage466.jpg'
p1607
sg199
S'/mnt/Datadisk/franklin/test/realtestdataset/annotation466.json'
p1608
sg201
I281
sg202
g203
sa(dp1609
g191
g192
sg193
(I480
I640
I3
tp1610
sg195
S'/mnt/Datadisk/franklin/test/realtestdataset/litImage351.jpg'
p1611
sg197
S'/mnt/Datadisk/franklin/test/realtestdataset/depthImage351.jpg'
p1612
sg199
S'/mnt/Datadisk/franklin/test/realtestdataset/annotation351.json'
p1613
sg201
I282
sg202
g203
sa(dp1614
g191
g192
sg193
(I480
I640
I3
tp1615
sg195
S'/mnt/Datadisk/franklin/test/realtestdataset/litImage474.jpg'
p1616
sg197
S'/mnt/Datadisk/franklin/test/realtestdataset/depthImage474.jpg'
p1617
sg199
S'/mnt/Datadisk/franklin/test/realtestdataset/annotation474.json'
p1618
sg201
I283
sg202
g203
sa(dp1619
g191
g192
sg193
(I480
I640
I3
tp1620
sg195
S'/mnt/Datadisk/franklin/test/realtestdataset/litImage122.jpg'
p1621
sg197
S'/mnt/Datadisk/franklin/test/realtestdataset/depthImage122.jpg'
p1622
sg199
S'/mnt/Datadisk/franklin/test/realtestdataset/annotation122.json'
p1623
sg201
I284
sg202
g203
sa(dp1624
g191
g192
sg193
(I480
I640
I3
tp1625
sg195
S'/mnt/Datadisk/franklin/test/realtestdataset/litImage50.jpg'
p1626
sg197
S'/mnt/Datadisk/franklin/test/realtestdataset/depthImage50.jpg'
p1627
sg199
S'/mnt/Datadisk/franklin/test/realtestdataset/annotation50.json'
p1628
sg201
I285
sg202
g203
sa(dp1629
g191
g192
sg193
(I480
I640
I3
tp1630
sg195
S'/mnt/Datadisk/franklin/test/realtestdataset/litImage242.jpg'
p1631
sg197
S'/mnt/Datadisk/franklin/test/realtestdataset/depthImage242.jpg'
p1632
sg199
S'/mnt/Datadisk/franklin/test/realtestdataset/annotation242.json'
p1633
sg201
I286
sg202
g203
sa(dp1634
g191
g192
sg193
(I480
I640
I3
tp1635
sg195
S'/mnt/Datadisk/franklin/test/realtestdataset/litImage354.jpg'
p1636
sg197
S'/mnt/Datadisk/franklin/test/realtestdataset/depthImage354.jpg'
p1637
sg199
S'/mnt/Datadisk/franklin/test/realtestdataset/annotation354.json'
p1638
sg201
I287
sg202
g203
sa(dp1639
g191
g192
sg193
(I480
I640
I3
tp1640
sg195
S'/mnt/Datadisk/franklin/test/realtestdataset/litImage137.jpg'
p1641
sg197
S'/mnt/Datadisk/franklin/test/realtestdataset/depthImage137.jpg'
p1642
sg199
S'/mnt/Datadisk/franklin/test/realtestdataset/annotation137.json'
p1643
sg201
I288
sg202
g203
sa(dp1644
g191
g192
sg193
(I480
I640
I3
tp1645
sg195
S'/mnt/Datadisk/franklin/test/realtestdataset/litImage68.jpg'
p1646
sg197
S'/mnt/Datadisk/franklin/test/realtestdataset/depthImage68.jpg'
p1647
sg199
S'/mnt/Datadisk/franklin/test/realtestdataset/annotation68.json'
p1648
sg201
I289
sg202
g203
sa(dp1649
g191
g192
sg193
(I480
I640
I3
tp1650
sg195
S'/mnt/Datadisk/franklin/test/realtestdataset/litImage440.jpg'
p1651
sg197
S'/mnt/Datadisk/franklin/test/realtestdataset/depthImage440.jpg'
p1652
sg199
S'/mnt/Datadisk/franklin/test/realtestdataset/annotation440.json'
p1653
sg201
I290
sg202
g203
sa(dp1654
g191
g192
sg193
(I480
I640
I3
tp1655
sg195
S'/mnt/Datadisk/franklin/test/realtestdataset/litImage182.jpg'
p1656
sg197
S'/mnt/Datadisk/franklin/test/realtestdataset/depthImage182.jpg'
p1657
sg199
S'/mnt/Datadisk/franklin/test/realtestdataset/annotation182.json'
p1658
sg201
I291
sg202
g203
sa(dp1659
g191
g192
sg193
(I480
I640
I3
tp1660
sg195
S'/mnt/Datadisk/franklin/test/realtestdataset/litImage11.jpg'
p1661
sg197
S'/mnt/Datadisk/franklin/test/realtestdataset/depthImage11.jpg'
p1662
sg199
S'/mnt/Datadisk/franklin/test/realtestdataset/annotation11.json'
p1663
sg201
I292
sg202
g203
sa(dp1664
g191
g192
sg193
(I480
I640
I3
tp1665
sg195
S'/mnt/Datadisk/franklin/test/realtestdataset/litImage314.jpg'
p1666
sg197
S'/mnt/Datadisk/franklin/test/realtestdataset/depthImage314.jpg'
p1667
sg199
S'/mnt/Datadisk/franklin/test/realtestdataset/annotation314.json'
p1668
sg201
I293
sg202
g203
sa(dp1669
g191
g192
sg193
(I480
I640
I3
tp1670
sg195
S'/mnt/Datadisk/franklin/test/realtestdataset/litImage437.jpg'
p1671
sg197
S'/mnt/Datadisk/franklin/test/realtestdataset/depthImage437.jpg'
p1672
sg199
S'/mnt/Datadisk/franklin/test/realtestdataset/annotation437.json'
p1673
sg201
I294
sg202
g203
sa(dp1674
g191
g192
sg193
(I480
I640
I3
tp1675
sg195
S'/mnt/Datadisk/franklin/test/realtestdataset/litImage459.jpg'
p1676
sg197
S'/mnt/Datadisk/franklin/test/realtestdataset/depthImage459.jpg'
p1677
sg199
S'/mnt/Datadisk/franklin/test/realtestdataset/annotation459.json'
p1678
sg201
I295
sg202
g203
sa(dp1679
g191
g192
sg193
(I480
I640
I3
tp1680
sg195
S'/mnt/Datadisk/franklin/test/realtestdataset/litImage413.jpg'
p1681
sg197
S'/mnt/Datadisk/franklin/test/realtestdataset/depthImage413.jpg'
p1682
sg199
S'/mnt/Datadisk/franklin/test/realtestdataset/annotation413.json'
p1683
sg201
I296
sg202
g203
sa(dp1684
g191
g192
sg193
(I480
I640
I3
tp1685
sg195
S'/mnt/Datadisk/franklin/test/realtestdataset/litImage37.jpg'
p1686
sg197
S'/mnt/Datadisk/franklin/test/realtestdataset/depthImage37.jpg'
p1687
sg199
S'/mnt/Datadisk/franklin/test/realtestdataset/annotation37.json'
p1688
sg201
I297
sg202
g203
sa(dp1689
g191
g192
sg193
(I480
I640
I3
tp1690
sg195
S'/mnt/Datadisk/franklin/test/realtestdataset/litImage187.jpg'
p1691
sg197
S'/mnt/Datadisk/franklin/test/realtestdataset/depthImage187.jpg'
p1692
sg199
S'/mnt/Datadisk/franklin/test/realtestdataset/annotation187.json'
p1693
sg201
I298
sg202
g203
sa(dp1694
g191
g192
sg193
(I480
I640
I3
tp1695
sg195
S'/mnt/Datadisk/franklin/test/realtestdataset/litImage420.jpg'
p1696
sg197
S'/mnt/Datadisk/franklin/test/realtestdataset/depthImage420.jpg'
p1697
sg199
S'/mnt/Datadisk/franklin/test/realtestdataset/annotation420.json'
p1698
sg201
I299
sg202
g203
sa(dp1699
g191
g192
sg193
(I480
I640
I3
tp1700
sg195
S'/mnt/Datadisk/franklin/test/realtestdataset/litImage348.jpg'
p1701
sg197
S'/mnt/Datadisk/franklin/test/realtestdataset/depthImage348.jpg'
p1702
sg199
S'/mnt/Datadisk/franklin/test/realtestdataset/annotation348.json'
p1703
sg201
I300
sg202
g203
sa(dp1704
g191
g192
sg193
(I480
I640
I3
tp1705
sg195
S'/mnt/Datadisk/franklin/test/realtestdataset/litImage364.jpg'
p1706
sg197
S'/mnt/Datadisk/franklin/test/realtestdataset/depthImage364.jpg'
p1707
sg199
S'/mnt/Datadisk/franklin/test/realtestdataset/annotation364.json'
p1708
sg201
I301
sg202
g203
sa(dp1709
g191
g192
sg193
(I480
I640
I3
tp1710
sg195
S'/mnt/Datadisk/franklin/test/realtestdataset/litImage162.jpg'
p1711
sg197
S'/mnt/Datadisk/franklin/test/realtestdataset/depthImage162.jpg'
p1712
sg199
S'/mnt/Datadisk/franklin/test/realtestdataset/annotation162.json'
p1713
sg201
I302
sg202
g203
sa(dp1714
g191
g192
sg193
(I480
I640
I3
tp1715
sg195
S'/mnt/Datadisk/franklin/test/realtestdataset/litImage398.jpg'
p1716
sg197
S'/mnt/Datadisk/franklin/test/realtestdataset/depthImage398.jpg'
p1717
sg199
S'/mnt/Datadisk/franklin/test/realtestdataset/annotation398.json'
p1718
sg201
I303
sg202
g203
sa(dp1719
g191
g192
sg193
(I480
I640
I3
tp1720
sg195
S'/mnt/Datadisk/franklin/test/realtestdataset/litImage368.jpg'
p1721
sg197
S'/mnt/Datadisk/franklin/test/realtestdataset/depthImage368.jpg'
p1722
sg199
S'/mnt/Datadisk/franklin/test/realtestdataset/annotation368.json'
p1723
sg201
I304
sg202
g203
sa(dp1724
g191
g192
sg193
(I480
I640
I3
tp1725
sg195
S'/mnt/Datadisk/franklin/test/realtestdataset/litImage147.jpg'
p1726
sg197
S'/mnt/Datadisk/franklin/test/realtestdataset/depthImage147.jpg'
p1727
sg199
S'/mnt/Datadisk/franklin/test/realtestdataset/annotation147.json'
p1728
sg201
I305
sg202
g203
sa(dp1729
g191
g192
sg193
(I480
I640
I3
tp1730
sg195
S'/mnt/Datadisk/franklin/test/realtestdataset/litImage125.jpg'
p1731
sg197
S'/mnt/Datadisk/franklin/test/realtestdataset/depthImage125.jpg'
p1732
sg199
S'/mnt/Datadisk/franklin/test/realtestdataset/annotation125.json'
p1733
sg201
I306
sg202
g203
sa(dp1734
g191
g192
sg193
(I480
I640
I3
tp1735
sg195
S'/mnt/Datadisk/franklin/test/realtestdataset/litImage406.jpg'
p1736
sg197
S'/mnt/Datadisk/franklin/test/realtestdataset/depthImage406.jpg'
p1737
sg199
S'/mnt/Datadisk/franklin/test/realtestdataset/annotation406.json'
p1738
sg201
I307
sg202
g203
sa(dp1739
g191
g192
sg193
(I480
I640
I3
tp1740
sg195
S'/mnt/Datadisk/franklin/test/realtestdataset/litImage174.jpg'
p1741
sg197
S'/mnt/Datadisk/franklin/test/realtestdataset/depthImage174.jpg'
p1742
sg199
S'/mnt/Datadisk/franklin/test/realtestdataset/annotation174.json'
p1743
sg201
I308
sg202
g203
sa(dp1744
g191
g192
sg193
(I480
I640
I3
tp1745
sg195
S'/mnt/Datadisk/franklin/test/realtestdataset/litImage292.jpg'
p1746
sg197
S'/mnt/Datadisk/franklin/test/realtestdataset/depthImage292.jpg'
p1747
sg199
S'/mnt/Datadisk/franklin/test/realtestdataset/annotation292.json'
p1748
sg201
I309
sg202
g203
sa(dp1749
g191
g192
sg193
(I480
I640
I3
tp1750
sg195
S'/mnt/Datadisk/franklin/test/realtestdataset/litImage90.jpg'
p1751
sg197
S'/mnt/Datadisk/franklin/test/realtestdataset/depthImage90.jpg'
p1752
sg199
S'/mnt/Datadisk/franklin/test/realtestdataset/annotation90.json'
p1753
sg201
I310
sg202
g203
sa(dp1754
g191
g192
sg193
(I480
I640
I3
tp1755
sg195
S'/mnt/Datadisk/franklin/test/realtestdataset/litImage167.jpg'
p1756
sg197
S'/mnt/Datadisk/franklin/test/realtestdataset/depthImage167.jpg'
p1757
sg199
S'/mnt/Datadisk/franklin/test/realtestdataset/annotation167.json'
p1758
sg201
I311
sg202
g203
sa(dp1759
g191
g192
sg193
(I480
I640
I3
tp1760
sg195
S'/mnt/Datadisk/franklin/test/realtestdataset/litImage341.jpg'
p1761
sg197
S'/mnt/Datadisk/franklin/test/realtestdataset/depthImage341.jpg'
p1762
sg199
S'/mnt/Datadisk/franklin/test/realtestdataset/annotation341.json'
p1763
sg201
I312
sg202
g203
sa(dp1764
g191
g192
sg193
(I480
I640
I3
tp1765
sg195
S'/mnt/Datadisk/franklin/test/realtestdataset/litImage218.jpg'
p1766
sg197
S'/mnt/Datadisk/franklin/test/realtestdataset/depthImage218.jpg'
p1767
sg199
S'/mnt/Datadisk/franklin/test/realtestdataset/annotation218.json'
p1768
sg201
I313
sg202
g203
sa(dp1769
g191
g192
sg193
(I480
I640
I3
tp1770
sg195
S'/mnt/Datadisk/franklin/test/realtestdataset/litImage399.jpg'
p1771
sg197
S'/mnt/Datadisk/franklin/test/realtestdataset/depthImage399.jpg'
p1772
sg199
S'/mnt/Datadisk/franklin/test/realtestdataset/annotation399.json'
p1773
sg201
I314
sg202
g203
sa(dp1774
g191
g192
sg193
(I480
I640
I3
tp1775
sg195
S'/mnt/Datadisk/franklin/test/realtestdataset/litImage491.jpg'
p1776
sg197
S'/mnt/Datadisk/franklin/test/realtestdataset/depthImage491.jpg'
p1777
sg199
S'/mnt/Datadisk/franklin/test/realtestdataset/annotation491.json'
p1778
sg201
I315
sg202
g203
sa(dp1779
g191
g192
sg193
(I480
I640
I3
tp1780
sg195
S'/mnt/Datadisk/franklin/test/realtestdataset/litImage472.jpg'
p1781
sg197
S'/mnt/Datadisk/franklin/test/realtestdataset/depthImage472.jpg'
p1782
sg199
S'/mnt/Datadisk/franklin/test/realtestdataset/annotation472.json'
p1783
sg201
I316
sg202
g203
sa(dp1784
g191
g192
sg193
(I480
I640
I3
tp1785
sg195
S'/mnt/Datadisk/franklin/test/realtestdataset/litImage220.jpg'
p1786
sg197
S'/mnt/Datadisk/franklin/test/realtestdataset/depthImage220.jpg'
p1787
sg199
S'/mnt/Datadisk/franklin/test/realtestdataset/annotation220.json'
p1788
sg201
I317
sg202
g203
sa(dp1789
g191
g192
sg193
(I480
I640
I3
tp1790
sg195
S'/mnt/Datadisk/franklin/test/realtestdataset/litImage407.jpg'
p1791
sg197
S'/mnt/Datadisk/franklin/test/realtestdataset/depthImage407.jpg'
p1792
sg199
S'/mnt/Datadisk/franklin/test/realtestdataset/annotation407.json'
p1793
sg201
I318
sg202
g203
sa(dp1794
g191
g192
sg193
(I480
I640
I3
tp1795
sg195
S'/mnt/Datadisk/franklin/test/realtestdataset/litImage249.jpg'
p1796
sg197
S'/mnt/Datadisk/franklin/test/realtestdataset/depthImage249.jpg'
p1797
sg199
S'/mnt/Datadisk/franklin/test/realtestdataset/annotation249.json'
p1798
sg201
I319
sg202
g203
sa(dp1799
g191
g192
sg193
(I480
I640
I3
tp1800
sg195
S'/mnt/Datadisk/franklin/test/realtestdataset/litImage400.jpg'
p1801
sg197
S'/mnt/Datadisk/franklin/test/realtestdataset/depthImage400.jpg'
p1802
sg199
S'/mnt/Datadisk/franklin/test/realtestdataset/annotation400.json'
p1803
sg201
I320
sg202
g203
sa(dp1804
g191
g192
sg193
(I480
I640
I3
tp1805
sg195
S'/mnt/Datadisk/franklin/test/realtestdataset/litImage455.jpg'
p1806
sg197
S'/mnt/Datadisk/franklin/test/realtestdataset/depthImage455.jpg'
p1807
sg199
S'/mnt/Datadisk/franklin/test/realtestdataset/annotation455.json'
p1808
sg201
I321
sg202
g203
sa(dp1809
g191
g192
sg193
(I480
I640
I3
tp1810
sg195
S'/mnt/Datadisk/franklin/test/realtestdataset/litImage246.jpg'
p1811
sg197
S'/mnt/Datadisk/franklin/test/realtestdataset/depthImage246.jpg'
p1812
sg199
S'/mnt/Datadisk/franklin/test/realtestdataset/annotation246.json'
p1813
sg201
I322
sg202
g203
sa(dp1814
g191
g192
sg193
(I480
I640
I3
tp1815
sg195
S'/mnt/Datadisk/franklin/test/realtestdataset/litImage156.jpg'
p1816
sg197
S'/mnt/Datadisk/franklin/test/realtestdataset/depthImage156.jpg'
p1817
sg199
S'/mnt/Datadisk/franklin/test/realtestdataset/annotation156.json'
p1818
sg201
I323
sg202
g203
sa(dp1819
g191
g192
sg193
(I480
I640
I3
tp1820
sg195
S'/mnt/Datadisk/franklin/test/realtestdataset/litImage393.jpg'
p1821
sg197
S'/mnt/Datadisk/franklin/test/realtestdataset/depthImage393.jpg'
p1822
sg199
S'/mnt/Datadisk/franklin/test/realtestdataset/annotation393.json'
p1823
sg201
I324
sg202
g203
sa(dp1824
g191
g192
sg193
(I480
I640
I3
tp1825
sg195
S'/mnt/Datadisk/franklin/test/realtestdataset/litImage99.jpg'
p1826
sg197
S'/mnt/Datadisk/franklin/test/realtestdataset/depthImage99.jpg'
p1827
sg199
S'/mnt/Datadisk/franklin/test/realtestdataset/annotation99.json'
p1828
sg201
I325
sg202
g203
sa(dp1829
g191
g192
sg193
(I480
I640
I3
tp1830
sg195
S'/mnt/Datadisk/franklin/test/realtestdataset/litImage230.jpg'
p1831
sg197
S'/mnt/Datadisk/franklin/test/realtestdataset/depthImage230.jpg'
p1832
sg199
S'/mnt/Datadisk/franklin/test/realtestdataset/annotation230.json'
p1833
sg201
I326
sg202
g203
sa(dp1834
g191
g192
sg193
(I480
I640
I3
tp1835
sg195
S'/mnt/Datadisk/franklin/test/realtestdataset/litImage40.jpg'
p1836
sg197
S'/mnt/Datadisk/franklin/test/realtestdataset/depthImage40.jpg'
p1837
sg199
S'/mnt/Datadisk/franklin/test/realtestdataset/annotation40.json'
p1838
sg201
I327
sg202
g203
sa(dp1839
g191
g192
sg193
(I480
I640
I3
tp1840
sg195
S'/mnt/Datadisk/franklin/test/realtestdataset/litImage380.jpg'
p1841
sg197
S'/mnt/Datadisk/franklin/test/realtestdataset/depthImage380.jpg'
p1842
sg199
S'/mnt/Datadisk/franklin/test/realtestdataset/annotation380.json'
p1843
sg201
I328
sg202
g203
sa(dp1844
g191
g192
sg193
(I480
I640
I3
tp1845
sg195
S'/mnt/Datadisk/franklin/test/realtestdataset/litImage178.jpg'
p1846
sg197
S'/mnt/Datadisk/franklin/test/realtestdataset/depthImage178.jpg'
p1847
sg199
S'/mnt/Datadisk/franklin/test/realtestdataset/annotation178.json'
p1848
sg201
I329
sg202
g203
sa(dp1849
g191
g192
sg193
(I480
I640
I3
tp1850
sg195
S'/mnt/Datadisk/franklin/test/realtestdataset/litImage432.jpg'
p1851
sg197
S'/mnt/Datadisk/franklin/test/realtestdataset/depthImage432.jpg'
p1852
sg199
S'/mnt/Datadisk/franklin/test/realtestdataset/annotation432.json'
p1853
sg201
I330
sg202
g203
sa(dp1854
g191
g192
sg193
(I480
I640
I3
tp1855
sg195
S'/mnt/Datadisk/franklin/test/realtestdataset/litImage326.jpg'
p1856
sg197
S'/mnt/Datadisk/franklin/test/realtestdataset/depthImage326.jpg'
p1857
sg199
S'/mnt/Datadisk/franklin/test/realtestdataset/annotation326.json'
p1858
sg201
I331
sg202
g203
sa(dp1859
g191
g192
sg193
(I480
I640
I3
tp1860
sg195
S'/mnt/Datadisk/franklin/test/realtestdataset/litImage291.jpg'
p1861
sg197
S'/mnt/Datadisk/franklin/test/realtestdataset/depthImage291.jpg'
p1862
sg199
S'/mnt/Datadisk/franklin/test/realtestdataset/annotation291.json'
p1863
sg201
I332
sg202
g203
sa(dp1864
g191
g192
sg193
(I480
I640
I3
tp1865
sg195
S'/mnt/Datadisk/franklin/test/realtestdataset/litImage188.jpg'
p1866
sg197
S'/mnt/Datadisk/franklin/test/realtestdataset/depthImage188.jpg'
p1867
sg199
S'/mnt/Datadisk/franklin/test/realtestdataset/annotation188.json'
p1868
sg201
I333
sg202
g203
sa(dp1869
g191
g192
sg193
(I480
I640
I3
tp1870
sg195
S'/mnt/Datadisk/franklin/test/realtestdataset/litImage157.jpg'
p1871
sg197
S'/mnt/Datadisk/franklin/test/realtestdataset/depthImage157.jpg'
p1872
sg199
S'/mnt/Datadisk/franklin/test/realtestdataset/annotation157.json'
p1873
sg201
I334
sg202
g203
sa(dp1874
g191
g192
sg193
(I480
I640
I3
tp1875
sg195
S'/mnt/Datadisk/franklin/test/realtestdataset/litImage144.jpg'
p1876
sg197
S'/mnt/Datadisk/franklin/test/realtestdataset/depthImage144.jpg'
p1877
sg199
S'/mnt/Datadisk/franklin/test/realtestdataset/annotation144.json'
p1878
sg201
I335
sg202
g203
sa(dp1879
g191
g192
sg193
(I480
I640
I3
tp1880
sg195
S'/mnt/Datadisk/franklin/test/realtestdataset/litImage257.jpg'
p1881
sg197
S'/mnt/Datadisk/franklin/test/realtestdataset/depthImage257.jpg'
p1882
sg199
S'/mnt/Datadisk/franklin/test/realtestdataset/annotation257.json'
p1883
sg201
I336
sg202
g203
sa(dp1884
g191
g192
sg193
(I480
I640
I3
tp1885
sg195
S'/mnt/Datadisk/franklin/test/realtestdataset/litImage112.jpg'
p1886
sg197
S'/mnt/Datadisk/franklin/test/realtestdataset/depthImage112.jpg'
p1887
sg199
S'/mnt/Datadisk/franklin/test/realtestdataset/annotation112.json'
p1888
sg201
I337
sg202
g203
sa(dp1889
g191
g192
sg193
(I480
I640
I3
tp1890
sg195
S'/mnt/Datadisk/franklin/test/realtestdataset/litImage92.jpg'
p1891
sg197
S'/mnt/Datadisk/franklin/test/realtestdataset/depthImage92.jpg'
p1892
sg199
S'/mnt/Datadisk/franklin/test/realtestdataset/annotation92.json'
p1893
sg201
I338
sg202
g203
sa(dp1894
g191
g192
sg193
(I480
I640
I3
tp1895
sg195
S'/mnt/Datadisk/franklin/test/realtestdataset/litImage142.jpg'
p1896
sg197
S'/mnt/Datadisk/franklin/test/realtestdataset/depthImage142.jpg'
p1897
sg199
S'/mnt/Datadisk/franklin/test/realtestdataset/annotation142.json'
p1898
sg201
I339
sg202
g203
sa(dp1899
g191
g192
sg193
(I480
I640
I3
tp1900
sg195
S'/mnt/Datadisk/franklin/test/realtestdataset/litImage343.jpg'
p1901
sg197
S'/mnt/Datadisk/franklin/test/realtestdataset/depthImage343.jpg'
p1902
sg199
S'/mnt/Datadisk/franklin/test/realtestdataset/annotation343.json'
p1903
sg201
I340
sg202
g203
sa(dp1904
g191
g192
sg193
(I480
I640
I3
tp1905
sg195
S'/mnt/Datadisk/franklin/test/realtestdataset/litImage126.jpg'
p1906
sg197
S'/mnt/Datadisk/franklin/test/realtestdataset/depthImage126.jpg'
p1907
sg199
S'/mnt/Datadisk/franklin/test/realtestdataset/annotation126.json'
p1908
sg201
I341
sg202
g203
sa(dp1909
g191
g192
sg193
(I480
I640
I3
tp1910
sg195
S'/mnt/Datadisk/franklin/test/realtestdataset/litImage271.jpg'
p1911
sg197
S'/mnt/Datadisk/franklin/test/realtestdataset/depthImage271.jpg'
p1912
sg199
S'/mnt/Datadisk/franklin/test/realtestdataset/annotation271.json'
p1913
sg201
I342
sg202
g203
sa(dp1914
g191
g192
sg193
(I480
I640
I3
tp1915
sg195
S'/mnt/Datadisk/franklin/test/realtestdataset/litImage382.jpg'
p1916
sg197
S'/mnt/Datadisk/franklin/test/realtestdataset/depthImage382.jpg'
p1917
sg199
S'/mnt/Datadisk/franklin/test/realtestdataset/annotation382.json'
p1918
sg201
I343
sg202
g203
sa(dp1919
g191
g192
sg193
(I480
I640
I3
tp1920
sg195
S'/mnt/Datadisk/franklin/test/realtestdataset/litImage345.jpg'
p1921
sg197
S'/mnt/Datadisk/franklin/test/realtestdataset/depthImage345.jpg'
p1922
sg199
S'/mnt/Datadisk/franklin/test/realtestdataset/annotation345.json'
p1923
sg201
I344
sg202
g203
sa(dp1924
g191
g192
sg193
(I480
I640
I3
tp1925
sg195
S'/mnt/Datadisk/franklin/test/realtestdataset/litImage359.jpg'
p1926
sg197
S'/mnt/Datadisk/franklin/test/realtestdataset/depthImage359.jpg'
p1927
sg199
S'/mnt/Datadisk/franklin/test/realtestdataset/annotation359.json'
p1928
sg201
I345
sg202
g203
sa(dp1929
g191
g192
sg193
(I480
I640
I3
tp1930
sg195
S'/mnt/Datadisk/franklin/test/realtestdataset/litImage154.jpg'
p1931
sg197
S'/mnt/Datadisk/franklin/test/realtestdataset/depthImage154.jpg'
p1932
sg199
S'/mnt/Datadisk/franklin/test/realtestdataset/annotation154.json'
p1933
sg201
I346
sg202
g203
sa(dp1934
g191
g192
sg193
(I480
I640
I3
tp1935
sg195
S'/mnt/Datadisk/franklin/test/realtestdataset/litImage100.jpg'
p1936
sg197
S'/mnt/Datadisk/franklin/test/realtestdataset/depthImage100.jpg'
p1937
sg199
S'/mnt/Datadisk/franklin/test/realtestdataset/annotation100.json'
p1938
sg201
I347
sg202
g203
sa(dp1939
g191
g192
sg193
(I480
I640
I3
tp1940
sg195
S'/mnt/Datadisk/franklin/test/realtestdataset/litImage281.jpg'
p1941
sg197
S'/mnt/Datadisk/franklin/test/realtestdataset/depthImage281.jpg'
p1942
sg199
S'/mnt/Datadisk/franklin/test/realtestdataset/annotation281.json'
p1943
sg201
I348
sg202
g203
sa(dp1944
g191
g192
sg193
(I480
I640
I3
tp1945
sg195
S'/mnt/Datadisk/franklin/test/realtestdataset/litImage424.jpg'
p1946
sg197
S'/mnt/Datadisk/franklin/test/realtestdataset/depthImage424.jpg'
p1947
sg199
S'/mnt/Datadisk/franklin/test/realtestdataset/annotation424.json'
p1948
sg201
I349
sg202
g203
sa(dp1949
g191
g192
sg193
(I480
I640
I3
tp1950
sg195
S'/mnt/Datadisk/franklin/test/realtestdataset/litImage410.jpg'
p1951
sg197
S'/mnt/Datadisk/franklin/test/realtestdataset/depthImage410.jpg'
p1952
sg199
S'/mnt/Datadisk/franklin/test/realtestdataset/annotation410.json'
p1953
sg201
I350
sg202
g203
sa(dp1954
g191
g192
sg193
(I480
I640
I3
tp1955
sg195
S'/mnt/Datadisk/franklin/test/realtestdataset/litImage177.jpg'
p1956
sg197
S'/mnt/Datadisk/franklin/test/realtestdataset/depthImage177.jpg'
p1957
sg199
S'/mnt/Datadisk/franklin/test/realtestdataset/annotation177.json'
p1958
sg201
I351
sg202
g203
sa(dp1959
g191
g192
sg193
(I480
I640
I3
tp1960
sg195
S'/mnt/Datadisk/franklin/test/realtestdataset/litImage168.jpg'
p1961
sg197
S'/mnt/Datadisk/franklin/test/realtestdataset/depthImage168.jpg'
p1962
sg199
S'/mnt/Datadisk/franklin/test/realtestdataset/annotation168.json'
p1963
sg201
I352
sg202
g203
sa(dp1964
g191
g192
sg193
(I480
I640
I3
tp1965
sg195
S'/mnt/Datadisk/franklin/test/realtestdataset/litImage357.jpg'
p1966
sg197
S'/mnt/Datadisk/franklin/test/realtestdataset/depthImage357.jpg'
p1967
sg199
S'/mnt/Datadisk/franklin/test/realtestdataset/annotation357.json'
p1968
sg201
I353
sg202
g203
sa(dp1969
g191
g192
sg193
(I480
I640
I3
tp1970
sg195
S'/mnt/Datadisk/franklin/test/realtestdataset/litImage83.jpg'
p1971
sg197
S'/mnt/Datadisk/franklin/test/realtestdataset/depthImage83.jpg'
p1972
sg199
S'/mnt/Datadisk/franklin/test/realtestdataset/annotation83.json'
p1973
sg201
I354
sg202
g203
sa(dp1974
g191
g192
sg193
(I480
I640
I3
tp1975
sg195
S'/mnt/Datadisk/franklin/test/realtestdataset/litImage221.jpg'
p1976
sg197
S'/mnt/Datadisk/franklin/test/realtestdataset/depthImage221.jpg'
p1977
sg199
S'/mnt/Datadisk/franklin/test/realtestdataset/annotation221.json'
p1978
sg201
I355
sg202
g203
sa(dp1979
g191
g192
sg193
(I480
I640
I3
tp1980
sg195
S'/mnt/Datadisk/franklin/test/realtestdataset/litImage462.jpg'
p1981
sg197
S'/mnt/Datadisk/franklin/test/realtestdataset/depthImage462.jpg'
p1982
sg199
S'/mnt/Datadisk/franklin/test/realtestdataset/annotation462.json'
p1983
sg201
I356
sg202
g203
sa(dp1984
g191
g192
sg193
(I480
I640
I3
tp1985
sg195
S'/mnt/Datadisk/franklin/test/realtestdataset/litImage52.jpg'
p1986
sg197
S'/mnt/Datadisk/franklin/test/realtestdataset/depthImage52.jpg'
p1987
sg199
S'/mnt/Datadisk/franklin/test/realtestdataset/annotation52.json'
p1988
sg201
I357
sg202
g203
sa(dp1989
g191
g192
sg193
(I480
I640
I3
tp1990
sg195
S'/mnt/Datadisk/franklin/test/realtestdataset/litImage184.jpg'
p1991
sg197
S'/mnt/Datadisk/franklin/test/realtestdataset/depthImage184.jpg'
p1992
sg199
S'/mnt/Datadisk/franklin/test/realtestdataset/annotation184.json'
p1993
sg201
I358
sg202
g203
sa(dp1994
g191
g192
sg193
(I480
I640
I3
tp1995
sg195
S'/mnt/Datadisk/franklin/test/realtestdataset/litImage74.jpg'
p1996
sg197
S'/mnt/Datadisk/franklin/test/realtestdataset/depthImage74.jpg'
p1997
sg199
S'/mnt/Datadisk/franklin/test/realtestdataset/annotation74.json'
p1998
sg201
I359
sg202
g203
sa(dp1999
g191
g192
sg193
(I480
I640
I3
tp2000
sg195
S'/mnt/Datadisk/franklin/test/realtestdataset/litImage127.jpg'
p2001
sg197
S'/mnt/Datadisk/franklin/test/realtestdataset/depthImage127.jpg'
p2002
sg199
S'/mnt/Datadisk/franklin/test/realtestdataset/annotation127.json'
p2003
sg201
I360
sg202
g203
sa(dp2004
g191
g192
sg193
(I480
I640
I3
tp2005
sg195
S'/mnt/Datadisk/franklin/test/realtestdataset/litImage62.jpg'
p2006
sg197
S'/mnt/Datadisk/franklin/test/realtestdataset/depthImage62.jpg'
p2007
sg199
S'/mnt/Datadisk/franklin/test/realtestdataset/annotation62.json'
p2008
sg201
I361
sg202
g203
sa(dp2009
g191
g192
sg193
(I480
I640
I3
tp2010
sg195
S'/mnt/Datadisk/franklin/test/realtestdataset/litImage362.jpg'
p2011
sg197
S'/mnt/Datadisk/franklin/test/realtestdataset/depthImage362.jpg'
p2012
sg199
S'/mnt/Datadisk/franklin/test/realtestdataset/annotation362.json'
p2013
sg201
I362
sg202
g203
sa(dp2014
g191
g192
sg193
(I480
I640
I3
tp2015
sg195
S'/mnt/Datadisk/franklin/test/realtestdataset/litImage492.jpg'
p2016
sg197
S'/mnt/Datadisk/franklin/test/realtestdataset/depthImage492.jpg'
p2017
sg199
S'/mnt/Datadisk/franklin/test/realtestdataset/annotation492.json'
p2018
sg201
I363
sg202
g203
sa(dp2019
g191
g192
sg193
(I480
I640
I3
tp2020
sg195
S'/mnt/Datadisk/franklin/test/realtestdataset/litImage30.jpg'
p2021
sg197
S'/mnt/Datadisk/franklin/test/realtestdataset/depthImage30.jpg'
p2022
sg199
S'/mnt/Datadisk/franklin/test/realtestdataset/annotation30.json'
p2023
sg201
I364
sg202
g203
sa(dp2024
g191
g192
sg193
(I480
I640
I3
tp2025
sg195
S'/mnt/Datadisk/franklin/test/realtestdataset/litImage266.jpg'
p2026
sg197
S'/mnt/Datadisk/franklin/test/realtestdataset/depthImage266.jpg'
p2027
sg199
S'/mnt/Datadisk/franklin/test/realtestdataset/annotation266.json'
p2028
sg201
I365
sg202
g203
sa(dp2029
g191
g192
sg193
(I480
I640
I3
tp2030
sg195
S'/mnt/Datadisk/franklin/test/realtestdataset/litImage422.jpg'
p2031
sg197
S'/mnt/Datadisk/franklin/test/realtestdataset/depthImage422.jpg'
p2032
sg199
S'/mnt/Datadisk/franklin/test/realtestdataset/annotation422.json'
p2033
sg201
I366
sg202
g203
sa(dp2034
g191
g192
sg193
(I480
I640
I3
tp2035
sg195
S'/mnt/Datadisk/franklin/test/realtestdataset/litImage34.jpg'
p2036
sg197
S'/mnt/Datadisk/franklin/test/realtestdataset/depthImage34.jpg'
p2037
sg199
S'/mnt/Datadisk/franklin/test/realtestdataset/annotation34.json'
p2038
sg201
I367
sg202
g203
sa(dp2039
g191
g192
sg193
(I480
I640
I3
tp2040
sg195
S'/mnt/Datadisk/franklin/test/realtestdataset/litImage484.jpg'
p2041
sg197
S'/mnt/Datadisk/franklin/test/realtestdataset/depthImage484.jpg'
p2042
sg199
S'/mnt/Datadisk/franklin/test/realtestdataset/annotation484.json'
p2043
sg201
I368
sg202
g203
sa(dp2044
g191
g192
sg193
(I480
I640
I3
tp2045
sg195
S'/mnt/Datadisk/franklin/test/realtestdataset/litImage450.jpg'
p2046
sg197
S'/mnt/Datadisk/franklin/test/realtestdataset/depthImage450.jpg'
p2047
sg199
S'/mnt/Datadisk/franklin/test/realtestdataset/annotation450.json'
p2048
sg201
I369
sg202
g203
sa(dp2049
g191
g192
sg193
(I480
I640
I3
tp2050
sg195
S'/mnt/Datadisk/franklin/test/realtestdataset/litImage107.jpg'
p2051
sg197
S'/mnt/Datadisk/franklin/test/realtestdataset/depthImage107.jpg'
p2052
sg199
S'/mnt/Datadisk/franklin/test/realtestdataset/annotation107.json'
p2053
sg201
I370
sg202
g203
sa(dp2054
g191
g192
sg193
(I480
I640
I3
tp2055
sg195
S'/mnt/Datadisk/franklin/test/realtestdataset/litImage173.jpg'
p2056
sg197
S'/mnt/Datadisk/franklin/test/realtestdataset/depthImage173.jpg'
p2057
sg199
S'/mnt/Datadisk/franklin/test/realtestdataset/annotation173.json'
p2058
sg201
I371
sg202
g203
sa(dp2059
g191
g192
sg193
(I480
I640
I3
tp2060
sg195
S'/mnt/Datadisk/franklin/test/realtestdataset/litImage426.jpg'
p2061
sg197
S'/mnt/Datadisk/franklin/test/realtestdataset/depthImage426.jpg'
p2062
sg199
S'/mnt/Datadisk/franklin/test/realtestdataset/annotation426.json'
p2063
sg201
I372
sg202
g203
sa(dp2064
g191
g192
sg193
(I480
I640
I3
tp2065
sg195
S'/mnt/Datadisk/franklin/test/realtestdataset/litImage316.jpg'
p2066
sg197
S'/mnt/Datadisk/franklin/test/realtestdataset/depthImage316.jpg'
p2067
sg199
S'/mnt/Datadisk/franklin/test/realtestdataset/annotation316.json'
p2068
sg201
I373
sg202
g203
sa(dp2069
g191
g192
sg193
(I480
I640
I3
tp2070
sg195
S'/mnt/Datadisk/franklin/test/realtestdataset/litImage324.jpg'
p2071
sg197
S'/mnt/Datadisk/franklin/test/realtestdataset/depthImage324.jpg'
p2072
sg199
S'/mnt/Datadisk/franklin/test/realtestdataset/annotation324.json'
p2073
sg201
I374
sg202
g203
sa(dp2074
g191
g192
sg193
(I480
I640
I3
tp2075
sg195
S'/mnt/Datadisk/franklin/test/realtestdataset/litImage238.jpg'
p2076
sg197
S'/mnt/Datadisk/franklin/test/realtestdataset/depthImage238.jpg'
p2077
sg199
S'/mnt/Datadisk/franklin/test/realtestdataset/annotation238.json'
p2078
sg201
I375
sg202
g203
sa(dp2079
g191
g192
sg193
(I480
I640
I3
tp2080
sg195
S'/mnt/Datadisk/franklin/test/realtestdataset/litImage75.jpg'
p2081
sg197
S'/mnt/Datadisk/franklin/test/realtestdataset/depthImage75.jpg'
p2082
sg199
S'/mnt/Datadisk/franklin/test/realtestdataset/annotation75.json'
p2083
sg201
I376
sg202
g203
sa(dp2084
g191
g192
sg193
(I480
I640
I3
tp2085
sg195
S'/mnt/Datadisk/franklin/test/realtestdataset/litImage1.jpg'
p2086
sg197
S'/mnt/Datadisk/franklin/test/realtestdataset/depthImage1.jpg'
p2087
sg199
S'/mnt/Datadisk/franklin/test/realtestdataset/annotation1.json'
p2088
sg201
I377
sg202
g203
sa(dp2089
g191
g192
sg193
(I480
I640
I3
tp2090
sg195
S'/mnt/Datadisk/franklin/test/realtestdataset/litImage361.jpg'
p2091
sg197
S'/mnt/Datadisk/franklin/test/realtestdataset/depthImage361.jpg'
p2092
sg199
S'/mnt/Datadisk/franklin/test/realtestdataset/annotation361.json'
p2093
sg201
I378
sg202
g203
sa(dp2094
g191
g192
sg193
(I480
I640
I3
tp2095
sg195
S'/mnt/Datadisk/franklin/test/realtestdataset/litImage254.jpg'
p2096
sg197
S'/mnt/Datadisk/franklin/test/realtestdataset/depthImage254.jpg'
p2097
sg199
S'/mnt/Datadisk/franklin/test/realtestdataset/annotation254.json'
p2098
sg201
I379
sg202
g203
sa(dp2099
g191
g192
sg193
(I480
I640
I3
tp2100
sg195
S'/mnt/Datadisk/franklin/test/realtestdataset/litImage202.jpg'
p2101
sg197
S'/mnt/Datadisk/franklin/test/realtestdataset/depthImage202.jpg'
p2102
sg199
S'/mnt/Datadisk/franklin/test/realtestdataset/annotation202.json'
p2103
sg201
I380
sg202
g203
sa(dp2104
g191
g192
sg193
(I480
I640
I3
tp2105
sg195
S'/mnt/Datadisk/franklin/test/realtestdataset/litImage183.jpg'
p2106
sg197
S'/mnt/Datadisk/franklin/test/realtestdataset/depthImage183.jpg'
p2107
sg199
S'/mnt/Datadisk/franklin/test/realtestdataset/annotation183.json'
p2108
sg201
I381
sg202
g203
sa(dp2109
g191
g192
sg193
(I480
I640
I3
tp2110
sg195
S'/mnt/Datadisk/franklin/test/realtestdataset/litImage429.jpg'
p2111
sg197
S'/mnt/Datadisk/franklin/test/realtestdataset/depthImage429.jpg'
p2112
sg199
S'/mnt/Datadisk/franklin/test/realtestdataset/annotation429.json'
p2113
sg201
I382
sg202
g203
sa(dp2114
g191
g192
sg193
(I480
I640
I3
tp2115
sg195
S'/mnt/Datadisk/franklin/test/realtestdataset/litImage106.jpg'
p2116
sg197
S'/mnt/Datadisk/franklin/test/realtestdataset/depthImage106.jpg'
p2117
sg199
S'/mnt/Datadisk/franklin/test/realtestdataset/annotation106.json'
p2118
sg201
I383
sg202
g203
sa(dp2119
g191
g192
sg193
(I480
I640
I3
tp2120
sg195
S'/mnt/Datadisk/franklin/test/realtestdataset/litImage352.jpg'
p2121
sg197
S'/mnt/Datadisk/franklin/test/realtestdataset/depthImage352.jpg'
p2122
sg199
S'/mnt/Datadisk/franklin/test/realtestdataset/annotation352.json'
p2123
sg201
I384
sg202
g203
sa(dp2124
g191
g192
sg193
(I480
I640
I3
tp2125
sg195
S'/mnt/Datadisk/franklin/test/realtestdataset/litImage212.jpg'
p2126
sg197
S'/mnt/Datadisk/franklin/test/realtestdataset/depthImage212.jpg'
p2127
sg199
S'/mnt/Datadisk/franklin/test/realtestdataset/annotation212.json'
p2128
sg201
I385
sg202
g203
sa(dp2129
g191
g192
sg193
(I480
I640
I3
tp2130
sg195
S'/mnt/Datadisk/franklin/test/realtestdataset/litImage490.jpg'
p2131
sg197
S'/mnt/Datadisk/franklin/test/realtestdataset/depthImage490.jpg'
p2132
sg199
S'/mnt/Datadisk/franklin/test/realtestdataset/annotation490.json'
p2133
sg201
I386
sg202
g203
sa(dp2134
g191
g192
sg193
(I480
I640
I3
tp2135
sg195
S'/mnt/Datadisk/franklin/test/realtestdataset/litImage109.jpg'
p2136
sg197
S'/mnt/Datadisk/franklin/test/realtestdataset/depthImage109.jpg'
p2137
sg199
S'/mnt/Datadisk/franklin/test/realtestdataset/annotation109.json'
p2138
sg201
I387
sg202
g203
sa(dp2139
g191
g192
sg193
(I480
I640
I3
tp2140
sg195
S'/mnt/Datadisk/franklin/test/realtestdataset/litImage355.jpg'
p2141
sg197
S'/mnt/Datadisk/franklin/test/realtestdataset/depthImage355.jpg'
p2142
sg199
S'/mnt/Datadisk/franklin/test/realtestdataset/annotation355.json'
p2143
sg201
I388
sg202
g203
sa(dp2144
g191
g192
sg193
(I480
I640
I3
tp2145
sg195
S'/mnt/Datadisk/franklin/test/realtestdataset/litImage303.jpg'
p2146
sg197
S'/mnt/Datadisk/franklin/test/realtestdataset/depthImage303.jpg'
p2147
sg199
S'/mnt/Datadisk/franklin/test/realtestdataset/annotation303.json'
p2148
sg201
I389
sg202
g203
sa(dp2149
g191
g192
sg193
(I480
I640
I3
tp2150
sg195
S'/mnt/Datadisk/franklin/test/realtestdataset/litImage66.jpg'
p2151
sg197
S'/mnt/Datadisk/franklin/test/realtestdataset/depthImage66.jpg'
p2152
sg199
S'/mnt/Datadisk/franklin/test/realtestdataset/annotation66.json'
p2153
sg201
I390
sg202
g203
sa(dp2154
g191
g192
sg193
(I480
I640
I3
tp2155
sg195
S'/mnt/Datadisk/franklin/test/realtestdataset/litImage77.jpg'
p2156
sg197
S'/mnt/Datadisk/franklin/test/realtestdataset/depthImage77.jpg'
p2157
sg199
S'/mnt/Datadisk/franklin/test/realtestdataset/annotation77.json'
p2158
sg201
I391
sg202
g203
sa(dp2159
g191
g192
sg193
(I480
I640
I3
tp2160
sg195
S'/mnt/Datadisk/franklin/test/realtestdataset/litImage23.jpg'
p2161
sg197
S'/mnt/Datadisk/franklin/test/realtestdataset/depthImage23.jpg'
p2162
sg199
S'/mnt/Datadisk/franklin/test/realtestdataset/annotation23.json'
p2163
sg201
I392
sg202
g203
sa(dp2164
g191
g192
sg193
(I480
I640
I3
tp2165
sg195
S'/mnt/Datadisk/franklin/test/realtestdataset/litImage431.jpg'
p2166
sg197
S'/mnt/Datadisk/franklin/test/realtestdataset/depthImage431.jpg'
p2167
sg199
S'/mnt/Datadisk/franklin/test/realtestdataset/annotation431.json'
p2168
sg201
I393
sg202
g203
sa(dp2169
g191
g192
sg193
(I480
I640
I3
tp2170
sg195
S'/mnt/Datadisk/franklin/test/realtestdataset/litImage428.jpg'
p2171
sg197
S'/mnt/Datadisk/franklin/test/realtestdataset/depthImage428.jpg'
p2172
sg199
S'/mnt/Datadisk/franklin/test/realtestdataset/annotation428.json'
p2173
sg201
I394
sg202
g203
sa(dp2174
g191
g192
sg193
(I480
I640
I3
tp2175
sg195
S'/mnt/Datadisk/franklin/test/realtestdataset/litImage347.jpg'
p2176
sg197
S'/mnt/Datadisk/franklin/test/realtestdataset/depthImage347.jpg'
p2177
sg199
S'/mnt/Datadisk/franklin/test/realtestdataset/annotation347.json'
p2178
sg201
I395
sg202
g203
sa(dp2179
g191
g192
sg193
(I480
I640
I3
tp2180
sg195
S'/mnt/Datadisk/franklin/test/realtestdataset/litImage454.jpg'
p2181
sg197
S'/mnt/Datadisk/franklin/test/realtestdataset/depthImage454.jpg'
p2182
sg199
S'/mnt/Datadisk/franklin/test/realtestdataset/annotation454.json'
p2183
sg201
I396
sg202
g203
sa(dp2184
g191
g192
sg193
(I480
I640
I3
tp2185
sg195
S'/mnt/Datadisk/franklin/test/realtestdataset/litImage486.jpg'
p2186
sg197
S'/mnt/Datadisk/franklin/test/realtestdataset/depthImage486.jpg'
p2187
sg199
S'/mnt/Datadisk/franklin/test/realtestdataset/annotation486.json'
p2188
sg201
I397
sg202
g203
sa(dp2189
g191
g192
sg193
(I480
I640
I3
tp2190
sg195
S'/mnt/Datadisk/franklin/test/realtestdataset/litImage248.jpg'
p2191
sg197
S'/mnt/Datadisk/franklin/test/realtestdataset/depthImage248.jpg'
p2192
sg199
S'/mnt/Datadisk/franklin/test/realtestdataset/annotation248.json'
p2193
sg201
I398
sg202
g203
sa(dp2194
g191
g192
sg193
(I480
I640
I3
tp2195
sg195
S'/mnt/Datadisk/franklin/test/realtestdataset/litImage251.jpg'
p2196
sg197
S'/mnt/Datadisk/franklin/test/realtestdataset/depthImage251.jpg'
p2197
sg199
S'/mnt/Datadisk/franklin/test/realtestdataset/annotation251.json'
p2198
sg201
I399
sg202
g203
sa(dp2199
g191
g192
sg193
(I480
I640
I3
tp2200
sg195
S'/mnt/Datadisk/franklin/test/realtestdataset/litImage35.jpg'
p2201
sg197
S'/mnt/Datadisk/franklin/test/realtestdataset/depthImage35.jpg'
p2202
sg199
S'/mnt/Datadisk/franklin/test/realtestdataset/annotation35.json'
p2203
sg201
I400
sg202
g203
sa(dp2204
g191
g192
sg193
(I480
I640
I3
tp2205
sg195
S'/mnt/Datadisk/franklin/test/realtestdataset/litImage16.jpg'
p2206
sg197
S'/mnt/Datadisk/franklin/test/realtestdataset/depthImage16.jpg'
p2207
sg199
S'/mnt/Datadisk/franklin/test/realtestdataset/annotation16.json'
p2208
sg201
I401
sg202
g203
sa(dp2209
g191
g192
sg193
(I480
I640
I3
tp2210
sg195
S'/mnt/Datadisk/franklin/test/realtestdataset/litImage91.jpg'
p2211
sg197
S'/mnt/Datadisk/franklin/test/realtestdataset/depthImage91.jpg'
p2212
sg199
S'/mnt/Datadisk/franklin/test/realtestdataset/annotation91.json'
p2213
sg201
I402
sg202
g203
sa(dp2214
g191
g192
sg193
(I480
I640
I3
tp2215
sg195
S'/mnt/Datadisk/franklin/test/realtestdataset/litImage449.jpg'
p2216
sg197
S'/mnt/Datadisk/franklin/test/realtestdataset/depthImage449.jpg'
p2217
sg199
S'/mnt/Datadisk/franklin/test/realtestdataset/annotation449.json'
p2218
sg201
I403
sg202
g203
sa(dp2219
g191
g192
sg193
(I480
I640
I3
tp2220
sg195
S'/mnt/Datadisk/franklin/test/realtestdataset/litImage274.jpg'
p2221
sg197
S'/mnt/Datadisk/franklin/test/realtestdataset/depthImage274.jpg'
p2222
sg199
S'/mnt/Datadisk/franklin/test/realtestdataset/annotation274.json'
p2223
sg201
I404
sg202
g203
sa(dp2224
g191
g192
sg193
(I480
I640
I3
tp2225
sg195
S'/mnt/Datadisk/franklin/test/realtestdataset/litImage404.jpg'
p2226
sg197
S'/mnt/Datadisk/franklin/test/realtestdataset/depthImage404.jpg'
p2227
sg199
S'/mnt/Datadisk/franklin/test/realtestdataset/annotation404.json'
p2228
sg201
I405
sg202
g203
sa(dp2229
g191
g192
sg193
(I480
I640
I3
tp2230
sg195
S'/mnt/Datadisk/franklin/test/realtestdataset/litImage136.jpg'
p2231
sg197
S'/mnt/Datadisk/franklin/test/realtestdataset/depthImage136.jpg'
p2232
sg199
S'/mnt/Datadisk/franklin/test/realtestdataset/annotation136.json'
p2233
sg201
I406
sg202
g203
sa(dp2234
g191
g192
sg193
(I480
I640
I3
tp2235
sg195
S'/mnt/Datadisk/franklin/test/realtestdataset/litImage44.jpg'
p2236
sg197
S'/mnt/Datadisk/franklin/test/realtestdataset/depthImage44.jpg'
p2237
sg199
S'/mnt/Datadisk/franklin/test/realtestdataset/annotation44.json'
p2238
sg201
I407
sg202
g203
sa(dp2239
g191
g192
sg193
(I480
I640
I3
tp2240
sg195
S'/mnt/Datadisk/franklin/test/realtestdataset/litImage299.jpg'
p2241
sg197
S'/mnt/Datadisk/franklin/test/realtestdataset/depthImage299.jpg'
p2242
sg199
S'/mnt/Datadisk/franklin/test/realtestdataset/annotation299.json'
p2243
sg201
I408
sg202
g203
sa(dp2244
g191
g192
sg193
(I480
I640
I3
tp2245
sg195
S'/mnt/Datadisk/franklin/test/realtestdataset/litImage306.jpg'
p2246
sg197
S'/mnt/Datadisk/franklin/test/realtestdataset/depthImage306.jpg'
p2247
sg199
S'/mnt/Datadisk/franklin/test/realtestdataset/annotation306.json'
p2248
sg201
I409
sg202
g203
sa(dp2249
g191
g192
sg193
(I480
I640
I3
tp2250
sg195
S'/mnt/Datadisk/franklin/test/realtestdataset/litImage128.jpg'
p2251
sg197
S'/mnt/Datadisk/franklin/test/realtestdataset/depthImage128.jpg'
p2252
sg199
S'/mnt/Datadisk/franklin/test/realtestdataset/annotation128.json'
p2253
sg201
I410
sg202
g203
sa(dp2254
g191
g192
sg193
(I480
I640
I3
tp2255
sg195
S'/mnt/Datadisk/franklin/test/realtestdataset/litImage132.jpg'
p2256
sg197
S'/mnt/Datadisk/franklin/test/realtestdataset/depthImage132.jpg'
p2257
sg199
S'/mnt/Datadisk/franklin/test/realtestdataset/annotation132.json'
p2258
sg201
I411
sg202
g203
sa(dp2259
g191
g192
sg193
(I480
I640
I3
tp2260
sg195
S'/mnt/Datadisk/franklin/test/realtestdataset/litImage358.jpg'
p2261
sg197
S'/mnt/Datadisk/franklin/test/realtestdataset/depthImage358.jpg'
p2262
sg199
S'/mnt/Datadisk/franklin/test/realtestdataset/annotation358.json'
p2263
sg201
I412
sg202
g203
sa(dp2264
g191
g192
sg193
(I480
I640
I3
tp2265
sg195
S'/mnt/Datadisk/franklin/test/realtestdataset/litImage392.jpg'
p2266
sg197
S'/mnt/Datadisk/franklin/test/realtestdataset/depthImage392.jpg'
p2267
sg199
S'/mnt/Datadisk/franklin/test/realtestdataset/annotation392.json'
p2268
sg201
I413
sg202
g203
sa(dp2269
g191
g192
sg193
(I480
I640
I3
tp2270
sg195
S'/mnt/Datadisk/franklin/test/realtestdataset/litImage320.jpg'
p2271
sg197
S'/mnt/Datadisk/franklin/test/realtestdataset/depthImage320.jpg'
p2272
sg199
S'/mnt/Datadisk/franklin/test/realtestdataset/annotation320.json'
p2273
sg201
I414
sg202
g203
sa(dp2274
g191
g192
sg193
(I480
I640
I3
tp2275
sg195
S'/mnt/Datadisk/franklin/test/realtestdataset/litImage350.jpg'
p2276
sg197
S'/mnt/Datadisk/franklin/test/realtestdataset/depthImage350.jpg'
p2277
sg199
S'/mnt/Datadisk/franklin/test/realtestdataset/annotation350.json'
p2278
sg201
I415
sg202
g203
sa(dp2279
g191
g192
sg193
(I480
I640
I3
tp2280
sg195
S'/mnt/Datadisk/franklin/test/realtestdataset/litImage340.jpg'
p2281
sg197
S'/mnt/Datadisk/franklin/test/realtestdataset/depthImage340.jpg'
p2282
sg199
S'/mnt/Datadisk/franklin/test/realtestdataset/annotation340.json'
p2283
sg201
I416
sg202
g203
sa(dp2284
g191
g192
sg193
(I480
I640
I3
tp2285
sg195
S'/mnt/Datadisk/franklin/test/realtestdataset/litImage322.jpg'
p2286
sg197
S'/mnt/Datadisk/franklin/test/realtestdataset/depthImage322.jpg'
p2287
sg199
S'/mnt/Datadisk/franklin/test/realtestdataset/annotation322.json'
p2288
sg201
I417
sg202
g203
sa(dp2289
g191
g192
sg193
(I480
I640
I3
tp2290
sg195
S'/mnt/Datadisk/franklin/test/realtestdataset/litImage282.jpg'
p2291
sg197
S'/mnt/Datadisk/franklin/test/realtestdataset/depthImage282.jpg'
p2292
sg199
S'/mnt/Datadisk/franklin/test/realtestdataset/annotation282.json'
p2293
sg201
I418
sg202
g203
sa(dp2294
g191
g192
sg193
(I480
I640
I3
tp2295
sg195
S'/mnt/Datadisk/franklin/test/realtestdataset/litImage298.jpg'
p2296
sg197
S'/mnt/Datadisk/franklin/test/realtestdataset/depthImage298.jpg'
p2297
sg199
S'/mnt/Datadisk/franklin/test/realtestdataset/annotation298.json'
p2298
sg201
I419
sg202
g203
sa(dp2299
g191
g192
sg193
(I480
I640
I3
tp2300
sg195
S'/mnt/Datadisk/franklin/test/realtestdataset/litImage12.jpg'
p2301
sg197
S'/mnt/Datadisk/franklin/test/realtestdataset/depthImage12.jpg'
p2302
sg199
S'/mnt/Datadisk/franklin/test/realtestdataset/annotation12.json'
p2303
sg201
I420
sg202
g203
sa(dp2304
g191
g192
sg193
(I480
I640
I3
tp2305
sg195
S'/mnt/Datadisk/franklin/test/realtestdataset/litImage67.jpg'
p2306
sg197
S'/mnt/Datadisk/franklin/test/realtestdataset/depthImage67.jpg'
p2307
sg199
S'/mnt/Datadisk/franklin/test/realtestdataset/annotation67.json'
p2308
sg201
I421
sg202
g203
sa(dp2309
g191
g192
sg193
(I480
I640
I3
tp2310
sg195
S'/mnt/Datadisk/franklin/test/realtestdataset/litImage349.jpg'
p2311
sg197
S'/mnt/Datadisk/franklin/test/realtestdataset/depthImage349.jpg'
p2312
sg199
S'/mnt/Datadisk/franklin/test/realtestdataset/annotation349.json'
p2313
sg201
I422
sg202
g203
sa(dp2314
g191
g192
sg193
(I480
I640
I3
tp2315
sg195
S'/mnt/Datadisk/franklin/test/realtestdataset/litImage111.jpg'
p2316
sg197
S'/mnt/Datadisk/franklin/test/realtestdataset/depthImage111.jpg'
p2317
sg199
S'/mnt/Datadisk/franklin/test/realtestdataset/annotation111.json'
p2318
sg201
I423
sg202
g203
sa(dp2319
g191
g192
sg193
(I480
I640
I3
tp2320
sg195
S'/mnt/Datadisk/franklin/test/realtestdataset/litImage64.jpg'
p2321
sg197
S'/mnt/Datadisk/franklin/test/realtestdataset/depthImage64.jpg'
p2322
sg199
S'/mnt/Datadisk/franklin/test/realtestdataset/annotation64.json'
p2323
sg201
I424
sg202
g203
sa(dp2324
g191
g192
sg193
(I480
I640
I3
tp2325
sg195
S'/mnt/Datadisk/franklin/test/realtestdataset/litImage421.jpg'
p2326
sg197
S'/mnt/Datadisk/franklin/test/realtestdataset/depthImage421.jpg'
p2327
sg199
S'/mnt/Datadisk/franklin/test/realtestdataset/annotation421.json'
p2328
sg201
I425
sg202
g203
sa(dp2329
g191
g192
sg193
(I480
I640
I3
tp2330
sg195
S'/mnt/Datadisk/franklin/test/realtestdataset/litImage166.jpg'
p2331
sg197
S'/mnt/Datadisk/franklin/test/realtestdataset/depthImage166.jpg'
p2332
sg199
S'/mnt/Datadisk/franklin/test/realtestdataset/annotation166.json'
p2333
sg201
I426
sg202
g203
sa(dp2334
g191
g192
sg193
(I480
I640
I3
tp2335
sg195
S'/mnt/Datadisk/franklin/test/realtestdataset/litImage38.jpg'
p2336
sg197
S'/mnt/Datadisk/franklin/test/realtestdataset/depthImage38.jpg'
p2337
sg199
S'/mnt/Datadisk/franklin/test/realtestdataset/annotation38.json'
p2338
sg201
I427
sg202
g203
sa(dp2339
g191
g192
sg193
(I480
I640
I3
tp2340
sg195
S'/mnt/Datadisk/franklin/test/realtestdataset/litImage468.jpg'
p2341
sg197
S'/mnt/Datadisk/franklin/test/realtestdataset/depthImage468.jpg'
p2342
sg199
S'/mnt/Datadisk/franklin/test/realtestdataset/annotation468.json'
p2343
sg201
I428
sg202
g203
sa(dp2344
g191
g192
sg193
(I480
I640
I3
tp2345
sg195
S'/mnt/Datadisk/franklin/test/realtestdataset/litImage201.jpg'
p2346
sg197
S'/mnt/Datadisk/franklin/test/realtestdataset/depthImage201.jpg'
p2347
sg199
S'/mnt/Datadisk/franklin/test/realtestdataset/annotation201.json'
p2348
sg201
I429
sg202
g203
sa(dp2349
g191
g192
sg193
(I480
I640
I3
tp2350
sg195
S'/mnt/Datadisk/franklin/test/realtestdataset/litImage261.jpg'
p2351
sg197
S'/mnt/Datadisk/franklin/test/realtestdataset/depthImage261.jpg'
p2352
sg199
S'/mnt/Datadisk/franklin/test/realtestdataset/annotation261.json'
p2353
sg201
I430
sg202
g203
sa(dp2354
g191
g192
sg193
(I480
I640
I3
tp2355
sg195
S'/mnt/Datadisk/franklin/test/realtestdataset/litImage97.jpg'
p2356
sg197
S'/mnt/Datadisk/franklin/test/realtestdataset/depthImage97.jpg'
p2357
sg199
S'/mnt/Datadisk/franklin/test/realtestdataset/annotation97.json'
p2358
sg201
I431
sg202
g203
sa(dp2359
g191
g192
sg193
(I480
I640
I3
tp2360
sg195
S'/mnt/Datadisk/franklin/test/realtestdataset/litImage269.jpg'
p2361
sg197
S'/mnt/Datadisk/franklin/test/realtestdataset/depthImage269.jpg'
p2362
sg199
S'/mnt/Datadisk/franklin/test/realtestdataset/annotation269.json'
p2363
sg201
I432
sg202
g203
sa(dp2364
g191
g192
sg193
(I480
I640
I3
tp2365
sg195
S'/mnt/Datadisk/franklin/test/realtestdataset/litImage441.jpg'
p2366
sg197
S'/mnt/Datadisk/franklin/test/realtestdataset/depthImage441.jpg'
p2367
sg199
S'/mnt/Datadisk/franklin/test/realtestdataset/annotation441.json'
p2368
sg201
I433
sg202
g203
sa(dp2369
g191
g192
sg193
(I480
I640
I3
tp2370
sg195
S'/mnt/Datadisk/franklin/test/realtestdataset/litImage63.jpg'
p2371
sg197
S'/mnt/Datadisk/franklin/test/realtestdataset/depthImage63.jpg'
p2372
sg199
S'/mnt/Datadisk/franklin/test/realtestdataset/annotation63.json'
p2373
sg201
I434
sg202
g203
sa(dp2374
g191
g192
sg193
(I480
I640
I3
tp2375
sg195
S'/mnt/Datadisk/franklin/test/realtestdataset/litImage256.jpg'
p2376
sg197
S'/mnt/Datadisk/franklin/test/realtestdataset/depthImage256.jpg'
p2377
sg199
S'/mnt/Datadisk/franklin/test/realtestdataset/annotation256.json'
p2378
sg201
I435
sg202
g203
sa(dp2379
g191
g192
sg193
(I480
I640
I3
tp2380
sg195
S'/mnt/Datadisk/franklin/test/realtestdataset/litImage337.jpg'
p2381
sg197
S'/mnt/Datadisk/franklin/test/realtestdataset/depthImage337.jpg'
p2382
sg199
S'/mnt/Datadisk/franklin/test/realtestdataset/annotation337.json'
p2383
sg201
I436
sg202
g203
sa(dp2384
g191
g192
sg193
(I480
I640
I3
tp2385
sg195
S'/mnt/Datadisk/franklin/test/realtestdataset/litImage284.jpg'
p2386
sg197
S'/mnt/Datadisk/franklin/test/realtestdataset/depthImage284.jpg'
p2387
sg199
S'/mnt/Datadisk/franklin/test/realtestdataset/annotation284.json'
p2388
sg201
I437
sg202
g203
sa(dp2389
g191
g192
sg193
(I480
I640
I3
tp2390
sg195
S'/mnt/Datadisk/franklin/test/realtestdataset/litImage14.jpg'
p2391
sg197
S'/mnt/Datadisk/franklin/test/realtestdataset/depthImage14.jpg'
p2392
sg199
S'/mnt/Datadisk/franklin/test/realtestdataset/annotation14.json'
p2393
sg201
I438
sg202
g203
sa(dp2394
g191
g192
sg193
(I480
I640
I3
tp2395
sg195
S'/mnt/Datadisk/franklin/test/realtestdataset/litImage179.jpg'
p2396
sg197
S'/mnt/Datadisk/franklin/test/realtestdataset/depthImage179.jpg'
p2397
sg199
S'/mnt/Datadisk/franklin/test/realtestdataset/annotation179.json'
p2398
sg201
I439
sg202
g203
sa(dp2399
g191
g192
sg193
(I480
I640
I3
tp2400
sg195
S'/mnt/Datadisk/franklin/test/realtestdataset/litImage175.jpg'
p2401
sg197
S'/mnt/Datadisk/franklin/test/realtestdataset/depthImage175.jpg'
p2402
sg199
S'/mnt/Datadisk/franklin/test/realtestdataset/annotation175.json'
p2403
sg201
I440
sg202
g203
sa(dp2404
g191
g192
sg193
(I480
I640
I3
tp2405
sg195
S'/mnt/Datadisk/franklin/test/realtestdataset/litImage153.jpg'
p2406
sg197
S'/mnt/Datadisk/franklin/test/realtestdataset/depthImage153.jpg'
p2407
sg199
S'/mnt/Datadisk/franklin/test/realtestdataset/annotation153.json'
p2408
sg201
I441
sg202
g203
sa(dp2409
g191
g192
sg193
(I480
I640
I3
tp2410
sg195
S'/mnt/Datadisk/franklin/test/realtestdataset/litImage164.jpg'
p2411
sg197
S'/mnt/Datadisk/franklin/test/realtestdataset/depthImage164.jpg'
p2412
sg199
S'/mnt/Datadisk/franklin/test/realtestdataset/annotation164.json'
p2413
sg201
I442
sg202
g203
sa(dp2414
g191
g192
sg193
(I480
I640
I3
tp2415
sg195
S'/mnt/Datadisk/franklin/test/realtestdataset/litImage487.jpg'
p2416
sg197
S'/mnt/Datadisk/franklin/test/realtestdataset/depthImage487.jpg'
p2417
sg199
S'/mnt/Datadisk/franklin/test/realtestdataset/annotation487.json'
p2418
sg201
I443
sg202
g203
sa(dp2419
g191
g192
sg193
(I480
I640
I3
tp2420
sg195
S'/mnt/Datadisk/franklin/test/realtestdataset/litImage216.jpg'
p2421
sg197
S'/mnt/Datadisk/franklin/test/realtestdataset/depthImage216.jpg'
p2422
sg199
S'/mnt/Datadisk/franklin/test/realtestdataset/annotation216.json'
p2423
sg201
I444
sg202
g203
sa(dp2424
g191
g192
sg193
(I480
I640
I3
tp2425
sg195
S'/mnt/Datadisk/franklin/test/realtestdataset/litImage203.jpg'
p2426
sg197
S'/mnt/Datadisk/franklin/test/realtestdataset/depthImage203.jpg'
p2427
sg199
S'/mnt/Datadisk/franklin/test/realtestdataset/annotation203.json'
p2428
sg201
I445
sg202
g203
sa(dp2429
g191
g192
sg193
(I480
I640
I3
tp2430
sg195
S'/mnt/Datadisk/franklin/test/realtestdataset/litImage408.jpg'
p2431
sg197
S'/mnt/Datadisk/franklin/test/realtestdataset/depthImage408.jpg'
p2432
sg199
S'/mnt/Datadisk/franklin/test/realtestdataset/annotation408.json'
p2433
sg201
I446
sg202
g203
sa(dp2434
g191
g192
sg193
(I480
I640
I3
tp2435
sg195
S'/mnt/Datadisk/franklin/test/realtestdataset/litImage185.jpg'
p2436
sg197
S'/mnt/Datadisk/franklin/test/realtestdataset/depthImage185.jpg'
p2437
sg199
S'/mnt/Datadisk/franklin/test/realtestdataset/annotation185.json'
p2438
sg201
I447
sg202
g203
sa(dp2439
g191
g192
sg193
(I480
I640
I3
tp2440
sg195
S'/mnt/Datadisk/franklin/test/realtestdataset/litImage456.jpg'
p2441
sg197
S'/mnt/Datadisk/franklin/test/realtestdataset/depthImage456.jpg'
p2442
sg199
S'/mnt/Datadisk/franklin/test/realtestdataset/annotation456.json'
p2443
sg201
I448
sg202
g203
sa(dp2444
g191
g192
sg193
(I480
I640
I3
tp2445
sg195
S'/mnt/Datadisk/franklin/test/realtestdataset/litImage374.jpg'
p2446
sg197
S'/mnt/Datadisk/franklin/test/realtestdataset/depthImage374.jpg'
p2447
sg199
S'/mnt/Datadisk/franklin/test/realtestdataset/annotation374.json'
p2448
sg201
I449
sg202
g203
sa(dp2449
g191
g192
sg193
(I480
I640
I3
tp2450
sg195
S'/mnt/Datadisk/franklin/test/realtestdataset/litImage475.jpg'
p2451
sg197
S'/mnt/Datadisk/franklin/test/realtestdataset/depthImage475.jpg'
p2452
sg199
S'/mnt/Datadisk/franklin/test/realtestdataset/annotation475.json'
p2453
sg201
I450
sg202
g203
sa(dp2454
g191
g192
sg193
(I480
I640
I3
tp2455
sg195
S'/mnt/Datadisk/franklin/test/realtestdataset/litImage118.jpg'
p2456
sg197
S'/mnt/Datadisk/franklin/test/realtestdataset/depthImage118.jpg'
p2457
sg199
S'/mnt/Datadisk/franklin/test/realtestdataset/annotation118.json'
p2458
sg201
I451
sg202
g203
sa(dp2459
g191
g192
sg193
(I480
I640
I3
tp2460
sg195
S'/mnt/Datadisk/franklin/test/realtestdataset/litImage469.jpg'
p2461
sg197
S'/mnt/Datadisk/franklin/test/realtestdataset/depthImage469.jpg'
p2462
sg199
S'/mnt/Datadisk/franklin/test/realtestdataset/annotation469.json'
p2463
sg201
I452
sg202
g203
sa(dp2464
g191
g192
sg193
(I480
I640
I3
tp2465
sg195
S'/mnt/Datadisk/franklin/test/realtestdataset/litImage123.jpg'
p2466
sg197
S'/mnt/Datadisk/franklin/test/realtestdataset/depthImage123.jpg'
p2467
sg199
S'/mnt/Datadisk/franklin/test/realtestdataset/annotation123.json'
p2468
sg201
I453
sg202
g203
sa(dp2469
g191
g192
sg193
(I480
I640
I3
tp2470
sg195
S'/mnt/Datadisk/franklin/test/realtestdataset/litImage89.jpg'
p2471
sg197
S'/mnt/Datadisk/franklin/test/realtestdataset/depthImage89.jpg'
p2472
sg199
S'/mnt/Datadisk/franklin/test/realtestdataset/annotation89.json'
p2473
sg201
I454
sg202
g203
sa(dp2474
g191
g192
sg193
(I480
I640
I3
tp2475
sg195
S'/mnt/Datadisk/franklin/test/realtestdataset/litImage240.jpg'
p2476
sg197
S'/mnt/Datadisk/franklin/test/realtestdataset/depthImage240.jpg'
p2477
sg199
S'/mnt/Datadisk/franklin/test/realtestdataset/annotation240.json'
p2478
sg201
I455
sg202
g203
sa(dp2479
g191
g192
sg193
(I480
I640
I3
tp2480
sg195
S'/mnt/Datadisk/franklin/test/realtestdataset/litImage390.jpg'
p2481
sg197
S'/mnt/Datadisk/franklin/test/realtestdataset/depthImage390.jpg'
p2482
sg199
S'/mnt/Datadisk/franklin/test/realtestdataset/annotation390.json'
p2483
sg201
I456
sg202
g203
sa(dp2484
g191
g192
sg193
(I480
I640
I3
tp2485
sg195
S'/mnt/Datadisk/franklin/test/realtestdataset/litImage163.jpg'
p2486
sg197
S'/mnt/Datadisk/franklin/test/realtestdataset/depthImage163.jpg'
p2487
sg199
S'/mnt/Datadisk/franklin/test/realtestdataset/annotation163.json'
p2488
sg201
I457
sg202
g203
sa(dp2489
g191
g192
sg193
(I480
I640
I3
tp2490
sg195
S'/mnt/Datadisk/franklin/test/realtestdataset/litImage386.jpg'
p2491
sg197
S'/mnt/Datadisk/franklin/test/realtestdataset/depthImage386.jpg'
p2492
sg199
S'/mnt/Datadisk/franklin/test/realtestdataset/annotation386.json'
p2493
sg201
I458
sg202
g203
sa(dp2494
g191
g192
sg193
(I480
I640
I3
tp2495
sg195
S'/mnt/Datadisk/franklin/test/realtestdataset/litImage489.jpg'
p2496
sg197
S'/mnt/Datadisk/franklin/test/realtestdataset/depthImage489.jpg'
p2497
sg199
S'/mnt/Datadisk/franklin/test/realtestdataset/annotation489.json'
p2498
sg201
I459
sg202
g203
sa(dp2499
g191
g192
sg193
(I480
I640
I3
tp2500
sg195
S'/mnt/Datadisk/franklin/test/realtestdataset/litImage448.jpg'
p2501
sg197
S'/mnt/Datadisk/franklin/test/realtestdataset/depthImage448.jpg'
p2502
sg199
S'/mnt/Datadisk/franklin/test/realtestdataset/annotation448.json'
p2503
sg201
I460
sg202
g203
sa(dp2504
g191
g192
sg193
(I480
I640
I3
tp2505
sg195
S'/mnt/Datadisk/franklin/test/realtestdataset/litImage32.jpg'
p2506
sg197
S'/mnt/Datadisk/franklin/test/realtestdataset/depthImage32.jpg'
p2507
sg199
S'/mnt/Datadisk/franklin/test/realtestdataset/annotation32.json'
p2508
sg201
I461
sg202
g203
sa(dp2509
g191
g192
sg193
(I480
I640
I3
tp2510
sg195
S'/mnt/Datadisk/franklin/test/realtestdataset/litImage130.jpg'
p2511
sg197
S'/mnt/Datadisk/franklin/test/realtestdataset/depthImage130.jpg'
p2512
sg199
S'/mnt/Datadisk/franklin/test/realtestdataset/annotation130.json'
p2513
sg201
I462
sg202
g203
sa(dp2514
g191
g192
sg193
(I480
I640
I3
tp2515
sg195
S'/mnt/Datadisk/franklin/test/realtestdataset/litImage463.jpg'
p2516
sg197
S'/mnt/Datadisk/franklin/test/realtestdataset/depthImage463.jpg'
p2517
sg199
S'/mnt/Datadisk/franklin/test/realtestdataset/annotation463.json'
p2518
sg201
I463
sg202
g203
sa(dp2519
g191
g192
sg193
(I480
I640
I3
tp2520
sg195
S'/mnt/Datadisk/franklin/test/realtestdataset/litImage80.jpg'
p2521
sg197
S'/mnt/Datadisk/franklin/test/realtestdataset/depthImage80.jpg'
p2522
sg199
S'/mnt/Datadisk/franklin/test/realtestdataset/annotation80.json'
p2523
sg201
I464
sg202
g203
sa(dp2524
g191
g192
sg193
(I480
I640
I3
tp2525
sg195
S'/mnt/Datadisk/franklin/test/realtestdataset/litImage199.jpg'
p2526
sg197
S'/mnt/Datadisk/franklin/test/realtestdataset/depthImage199.jpg'
p2527
sg199
S'/mnt/Datadisk/franklin/test/realtestdataset/annotation199.json'
p2528
sg201
I465
sg202
g203
sa(dp2529
g191
g192
sg193
(I480
I640
I3
tp2530
sg195
S'/mnt/Datadisk/franklin/test/realtestdataset/litImage438.jpg'
p2531
sg197
S'/mnt/Datadisk/franklin/test/realtestdataset/depthImage438.jpg'
p2532
sg199
S'/mnt/Datadisk/franklin/test/realtestdataset/annotation438.json'
p2533
sg201
I466
sg202
g203
sa(dp2534
g191
g192
sg193
(I480
I640
I3
tp2535
sg195
S'/mnt/Datadisk/franklin/test/realtestdataset/litImage9.jpg'
p2536
sg197
S'/mnt/Datadisk/franklin/test/realtestdataset/depthImage9.jpg'
p2537
sg199
S'/mnt/Datadisk/franklin/test/realtestdataset/annotation9.json'
p2538
sg201
I467
sg202
g203
sa(dp2539
g191
g192
sg193
(I480
I640
I3
tp2540
sg195
S'/mnt/Datadisk/franklin/test/realtestdataset/litImage13.jpg'
p2541
sg197
S'/mnt/Datadisk/franklin/test/realtestdataset/depthImage13.jpg'
p2542
sg199
S'/mnt/Datadisk/franklin/test/realtestdataset/annotation13.json'
p2543
sg201
I468
sg202
g203
sa(dp2544
g191
g192
sg193
(I480
I640
I3
tp2545
sg195
S'/mnt/Datadisk/franklin/test/realtestdataset/litImage245.jpg'
p2546
sg197
S'/mnt/Datadisk/franklin/test/realtestdataset/depthImage245.jpg'
p2547
sg199
S'/mnt/Datadisk/franklin/test/realtestdataset/annotation245.json'
p2548
sg201
I469
sg202
g203
sa(dp2549
g191
g192
sg193
(I480
I640
I3
tp2550
sg195
S'/mnt/Datadisk/franklin/test/realtestdataset/litImage329.jpg'
p2551
sg197
S'/mnt/Datadisk/franklin/test/realtestdataset/depthImage329.jpg'
p2552
sg199
S'/mnt/Datadisk/franklin/test/realtestdataset/annotation329.json'
p2553
sg201
I470
sg202
g203
sa(dp2554
g191
g192
sg193
(I480
I640
I3
tp2555
sg195
S'/mnt/Datadisk/franklin/test/realtestdataset/litImage268.jpg'
p2556
sg197
S'/mnt/Datadisk/franklin/test/realtestdataset/depthImage268.jpg'
p2557
sg199
S'/mnt/Datadisk/franklin/test/realtestdataset/annotation268.json'
p2558
sg201
I471
sg202
g203
sa(dp2559
g191
g192
sg193
(I480
I640
I3
tp2560
sg195
S'/mnt/Datadisk/franklin/test/realtestdataset/litImage3.jpg'
p2561
sg197
S'/mnt/Datadisk/franklin/test/realtestdataset/depthImage3.jpg'
p2562
sg199
S'/mnt/Datadisk/franklin/test/realtestdataset/annotation3.json'
p2563
sg201
I472
sg202
g203
sa(dp2564
g191
g192
sg193
(I480
I640
I3
tp2565
sg195
S'/mnt/Datadisk/franklin/test/realtestdataset/litImage244.jpg'
p2566
sg197
S'/mnt/Datadisk/franklin/test/realtestdataset/depthImage244.jpg'
p2567
sg199
S'/mnt/Datadisk/franklin/test/realtestdataset/annotation244.json'
p2568
sg201
I473
sg202
g203
sa(dp2569
g191
g192
sg193
(I480
I640
I3
tp2570
sg195
S'/mnt/Datadisk/franklin/test/realtestdataset/litImage356.jpg'
p2571
sg197
S'/mnt/Datadisk/franklin/test/realtestdataset/depthImage356.jpg'
p2572
sg199
S'/mnt/Datadisk/franklin/test/realtestdataset/annotation356.json'
p2573
sg201
I474
sg202
g203
sa(dp2574
g191
g192
sg193
(I480
I640
I3
tp2575
sg195
S'/mnt/Datadisk/franklin/test/realtestdataset/litImage26.jpg'
p2576
sg197
S'/mnt/Datadisk/franklin/test/realtestdataset/depthImage26.jpg'
p2577
sg199
S'/mnt/Datadisk/franklin/test/realtestdataset/annotation26.json'
p2578
sg201
I475
sg202
g203
sa(dp2579
g191
g192
sg193
(I480
I640
I3
tp2580
sg195
S'/mnt/Datadisk/franklin/test/realtestdataset/litImage414.jpg'
p2581
sg197
S'/mnt/Datadisk/franklin/test/realtestdataset/depthImage414.jpg'
p2582
sg199
S'/mnt/Datadisk/franklin/test/realtestdataset/annotation414.json'
p2583
sg201
I476
sg202
g203
sa(dp2584
g191
g192
sg193
(I480
I640
I3
tp2585
sg195
S'/mnt/Datadisk/franklin/test/realtestdataset/litImage115.jpg'
p2586
sg197
S'/mnt/Datadisk/franklin/test/realtestdataset/depthImage115.jpg'
p2587
sg199
S'/mnt/Datadisk/franklin/test/realtestdataset/annotation115.json'
p2588
sg201
I477
sg202
g203
sa(dp2589
g191
g192
sg193
(I480
I640
I3
tp2590
sg195
S'/mnt/Datadisk/franklin/test/realtestdataset/litImage403.jpg'
p2591
sg197
S'/mnt/Datadisk/franklin/test/realtestdataset/depthImage403.jpg'
p2592
sg199
S'/mnt/Datadisk/franklin/test/realtestdataset/annotation403.json'
p2593
sg201
I478
sg202
g203
sa(dp2594
g191
g192
sg193
(I480
I640
I3
tp2595
sg195
S'/mnt/Datadisk/franklin/test/realtestdataset/litImage217.jpg'
p2596
sg197
S'/mnt/Datadisk/franklin/test/realtestdataset/depthImage217.jpg'
p2597
sg199
S'/mnt/Datadisk/franklin/test/realtestdataset/annotation217.json'
p2598
sg201
I479
sg202
g203
sa(dp2599
g191
g192
sg193
(I480
I640
I3
tp2600
sg195
S'/mnt/Datadisk/franklin/test/realtestdataset/litImage295.jpg'
p2601
sg197
S'/mnt/Datadisk/franklin/test/realtestdataset/depthImage295.jpg'
p2602
sg199
S'/mnt/Datadisk/franklin/test/realtestdataset/annotation295.json'
p2603
sg201
I480
sg202
g203
sa(dp2604
g191
g192
sg193
(I480
I640
I3
tp2605
sg195
S'/mnt/Datadisk/franklin/test/realtestdataset/litImage304.jpg'
p2606
sg197
S'/mnt/Datadisk/franklin/test/realtestdataset/depthImage304.jpg'
p2607
sg199
S'/mnt/Datadisk/franklin/test/realtestdataset/annotation304.json'
p2608
sg201
I481
sg202
g203
sa(dp2609
g191
g192
sg193
(I480
I640
I3
tp2610
sg195
S'/mnt/Datadisk/franklin/test/realtestdataset/litImage152.jpg'
p2611
sg197
S'/mnt/Datadisk/franklin/test/realtestdataset/depthImage152.jpg'
p2612
sg199
S'/mnt/Datadisk/franklin/test/realtestdataset/annotation152.json'
p2613
sg201
I482
sg202
g203
sa(dp2614
g191
g192
sg193
(I480
I640
I3
tp2615
sg195
S'/mnt/Datadisk/franklin/test/realtestdataset/litImage418.jpg'
p2616
sg197
S'/mnt/Datadisk/franklin/test/realtestdataset/depthImage418.jpg'
p2617
sg199
S'/mnt/Datadisk/franklin/test/realtestdataset/annotation418.json'
p2618
sg201
I483
sg202
g203
sa(dp2619
g191
g192
sg193
(I480
I640
I3
tp2620
sg195
S'/mnt/Datadisk/franklin/test/realtestdataset/litImage477.jpg'
p2621
sg197
S'/mnt/Datadisk/franklin/test/realtestdataset/depthImage477.jpg'
p2622
sg199
S'/mnt/Datadisk/franklin/test/realtestdataset/annotation477.json'
p2623
sg201
I484
sg202
g203
sa(dp2624
g191
g192
sg193
(I480
I640
I3
tp2625
sg195
S'/mnt/Datadisk/franklin/test/realtestdataset/litImage276.jpg'
p2626
sg197
S'/mnt/Datadisk/franklin/test/realtestdataset/depthImage276.jpg'
p2627
sg199
S'/mnt/Datadisk/franklin/test/realtestdataset/annotation276.json'
p2628
sg201
I485
sg202
g203
sa(dp2629
g191
g192
sg193
(I480
I640
I3
tp2630
sg195
S'/mnt/Datadisk/franklin/test/realtestdataset/litImage270.jpg'
p2631
sg197
S'/mnt/Datadisk/franklin/test/realtestdataset/depthImage270.jpg'
p2632
sg199
S'/mnt/Datadisk/franklin/test/realtestdataset/annotation270.json'
p2633
sg201
I486
sg202
g203
sa(dp2634
g191
g192
sg193
(I480
I640
I3
tp2635
sg195
S'/mnt/Datadisk/franklin/test/realtestdataset/litImage151.jpg'
p2636
sg197
S'/mnt/Datadisk/franklin/test/realtestdataset/depthImage151.jpg'
p2637
sg199
S'/mnt/Datadisk/franklin/test/realtestdataset/annotation151.json'
p2638
sg201
I487
sg202
g203
sa(dp2639
g191
g192
sg193
(I480
I640
I3
tp2640
sg195
S'/mnt/Datadisk/franklin/test/realtestdataset/litImage309.jpg'
p2641
sg197
S'/mnt/Datadisk/franklin/test/realtestdataset/depthImage309.jpg'
p2642
sg199
S'/mnt/Datadisk/franklin/test/realtestdataset/annotation309.json'
p2643
sg201
I488
sg202
g203
sa(dp2644
g191
g192
sg193
(I480
I640
I3
tp2645
sg195
S'/mnt/Datadisk/franklin/test/realtestdataset/litImage375.jpg'
p2646
sg197
S'/mnt/Datadisk/franklin/test/realtestdataset/depthImage375.jpg'
p2647
sg199
S'/mnt/Datadisk/franklin/test/realtestdataset/annotation375.json'
p2648
sg201
I489
sg202
g203
sa(dp2649
g191
g192
sg193
(I480
I640
I3
tp2650
sg195
S'/mnt/Datadisk/franklin/test/realtestdataset/litImage76.jpg'
p2651
sg197
S'/mnt/Datadisk/franklin/test/realtestdataset/depthImage76.jpg'
p2652
sg199
S'/mnt/Datadisk/franklin/test/realtestdataset/annotation76.json'
p2653
sg201
I490
sg202
g203
sa(dp2654
g191
g192
sg193
(I480
I640
I3
tp2655
sg195
S'/mnt/Datadisk/franklin/test/realtestdataset/litImage262.jpg'
p2656
sg197
S'/mnt/Datadisk/franklin/test/realtestdataset/depthImage262.jpg'
p2657
sg199
S'/mnt/Datadisk/franklin/test/realtestdataset/annotation262.json'
p2658
sg201
I491
sg202
g203
sasS'class_ids'
p2659
(lp2660
g7
(g8
(I0
tp2661
g10
tp2662
Rp2663
(I1
(I21
tp2664
g14
(S'i8'
p2665
I0
I1
tp2666
Rp2667
(I3
S'<'
p2668
NNNI-1
I-1
I0
tp2669
bI00
S'\x00\x00\x00\x00\x00\x00\x00\x00\x01\x00\x00\x00\x00\x00\x00\x00\x02\x00\x00\x00\x00\x00\x00\x00\x03\x00\x00\x00\x00\x00\x00\x00\x04\x00\x00\x00\x00\x00\x00\x00\x05\x00\x00\x00\x00\x00\x00\x00\x06\x00\x00\x00\x00\x00\x00\x00\x07\x00\x00\x00\x00\x00\x00\x00\x08\x00\x00\x00\x00\x00\x00\x00\t\x00\x00\x00\x00\x00\x00\x00\n\x00\x00\x00\x00\x00\x00\x00\x0b\x00\x00\x00\x00\x00\x00\x00\x0c\x00\x00\x00\x00\x00\x00\x00\r\x00\x00\x00\x00\x00\x00\x00\x0e\x00\x00\x00\x00\x00\x00\x00\x0f\x00\x00\x00\x00\x00\x00\x00\x10\x00\x00\x00\x00\x00\x00\x00\x11\x00\x00\x00\x00\x00\x00\x00\x12\x00\x00\x00\x00\x00\x00\x00\x13\x00\x00\x00\x00\x00\x00\x00\x14\x00\x00\x00\x00\x00\x00\x00'
p2670
tp2671
bag7
(g8
(I0
tp2672
g10
tp2673
Rp2674
(I1
(I12
tp2675
g2667
I00
S'\x00\x00\x00\x00\x00\x00\x00\x00\x01\x00\x00\x00\x00\x00\x00\x00\x02\x00\x00\x00\x00\x00\x00\x00\x03\x00\x00\x00\x00\x00\x00\x00\x04\x00\x00\x00\x00\x00\x00\x00\x05\x00\x00\x00\x00\x00\x00\x00\x06\x00\x00\x00\x00\x00\x00\x00\x07\x00\x00\x00\x00\x00\x00\x00\x08\x00\x00\x00\x00\x00\x00\x00\t\x00\x00\x00\x00\x00\x00\x00\n\x00\x00\x00\x00\x00\x00\x00\x0b\x00\x00\x00\x00\x00\x00\x00'
p2676
tp2677
bag7
(g8
(I0
tp2678
g10
tp2679
Rp2680
(I1
(I6
tp2681
g2667
I00
S'\x00\x00\x00\x00\x00\x00\x00\x00\x01\x00\x00\x00\x00\x00\x00\x00\x02\x00\x00\x00\x00\x00\x00\x00\x03\x00\x00\x00\x00\x00\x00\x00\x04\x00\x00\x00\x00\x00\x00\x00\x05\x00\x00\x00\x00\x00\x00\x00'
p2682
tp2683
bag7
(g8
(I0
tp2684
g10
tp2685
Rp2686
(I1
(I7
tp2687
g2667
I00
S'\x00\x00\x00\x00\x00\x00\x00\x00\x01\x00\x00\x00\x00\x00\x00\x00\x02\x00\x00\x00\x00\x00\x00\x00\x03\x00\x00\x00\x00\x00\x00\x00\x04\x00\x00\x00\x00\x00\x00\x00\x05\x00\x00\x00\x00\x00\x00\x00\x06\x00\x00\x00\x00\x00\x00\x00'
p2688
tp2689
bag7
(g8
(I0
tp2690
g10
tp2691
Rp2692
(I1
(I3
tp2693
g2667
I00
S'\x00\x00\x00\x00\x00\x00\x00\x00\x01\x00\x00\x00\x00\x00\x00\x00\x02\x00\x00\x00\x00\x00\x00\x00'
p2694
tp2695
bag7
(g8
(I0
tp2696
g10
tp2697
Rp2698
(I1
(I5
tp2699
g2667
I00
S'\x00\x00\x00\x00\x00\x00\x00\x00\x01\x00\x00\x00\x00\x00\x00\x00\x02\x00\x00\x00\x00\x00\x00\x00\x03\x00\x00\x00\x00\x00\x00\x00\x04\x00\x00\x00\x00\x00\x00\x00'
p2700
tp2701
bag7
(g8
(I0
tp2702
g10
tp2703
Rp2704
(I1
(I4
tp2705
g2667
I00
S'\x00\x00\x00\x00\x00\x00\x00\x00\x01\x00\x00\x00\x00\x00\x00\x00\x02\x00\x00\x00\x00\x00\x00\x00\x03\x00\x00\x00\x00\x00\x00\x00'
p2706
tp2707
basS'class_from_source_map'
p2708
(lp2709
(dp2710
S'robotVQA.1'
p2711
cnumpy.core.multiarray
scalar
p2712
(g17
S'\x01\x00\x00\x00\x00\x00\x00\x00'
p2713
tp2714
Rp2715
sS'robotVQA.2'
p2716
g2712
(g17
S'\x02\x00\x00\x00\x00\x00\x00\x00'
p2717
tp2718
Rp2719
sS'robotVQA.3'
p2720
g2712
(g17
S'\x03\x00\x00\x00\x00\x00\x00\x00'
p2721
tp2722
Rp2723
sS'robotVQA.4'
p2724
g2712
(g17
S'\x04\x00\x00\x00\x00\x00\x00\x00'
p2725
tp2726
Rp2727
sS'robotVQA.5'
p2728
g2712
(g17
S'\x05\x00\x00\x00\x00\x00\x00\x00'
p2729
tp2730
Rp2731
sS'robotVQA.6'
p2732
g2712
(g17
S'\x06\x00\x00\x00\x00\x00\x00\x00'
p2733
tp2734
Rp2735
sS'robotVQA.7'
p2736
g2712
(g17
S'\x07\x00\x00\x00\x00\x00\x00\x00'
p2737
tp2738
Rp2739
sS'robotVQA.8'
p2740
g2712
(g17
S'\x08\x00\x00\x00\x00\x00\x00\x00'
p2741
tp2742
Rp2743
sS'robotVQA.9'
p2744
g2712
(g17
S'\t\x00\x00\x00\x00\x00\x00\x00'
p2745
tp2746
Rp2747
sS'robotVQA.19'
p2748
g2712
(g17
S'\x13\x00\x00\x00\x00\x00\x00\x00'
p2749
tp2750
Rp2751
sS'.0'
p2752
g2712
(g17
S'\x00\x00\x00\x00\x00\x00\x00\x00'
p2753
tp2754
Rp2755
sS'robotVQA.18'
p2756
g2712
(g17
S'\x12\x00\x00\x00\x00\x00\x00\x00'
p2757
tp2758
Rp2759
sS'robotVQA.20'
p2760
g2712
(g17
S'\x14\x00\x00\x00\x00\x00\x00\x00'
p2761
tp2762
Rp2763
sS'robotVQA.12'
p2764
g2712
(g17
S'\x0c\x00\x00\x00\x00\x00\x00\x00'
p2765
tp2766
Rp2767
sS'robotVQA.13'
p2768
g2712
(g17
S'\r\x00\x00\x00\x00\x00\x00\x00'
p2769
tp2770
Rp2771
sS'robotVQA.10'
p2772
g2712
(g17
S'\n\x00\x00\x00\x00\x00\x00\x00'
p2773
tp2774
Rp2775
sS'robotVQA.11'
p2776
g2712
(g17
S'\x0b\x00\x00\x00\x00\x00\x00\x00'
p2777
tp2778
Rp2779
sS'robotVQA.16'
p2780
g2712
(g17
S'\x10\x00\x00\x00\x00\x00\x00\x00'
p2781
tp2782
Rp2783
sS'robotVQA.17'
p2784
g2712
(g17
S'\x11\x00\x00\x00\x00\x00\x00\x00'
p2785
tp2786
Rp2787
sS'robotVQA.14'
p2788
g2712
(g17
S'\x0e\x00\x00\x00\x00\x00\x00\x00'
p2789
tp2790
Rp2791
sS'robotVQA.15'
p2792
g2712
(g17
S'\x0f\x00\x00\x00\x00\x00\x00\x00'
p2793
tp2794
Rp2795
sa(dp2796
S'robotVQA.1'
p2797
g2712
(g17
S'\x01\x00\x00\x00\x00\x00\x00\x00'
p2798
tp2799
Rp2800
sS'robotVQA.2'
p2801
g2712
(g17
S'\x02\x00\x00\x00\x00\x00\x00\x00'
p2802
tp2803
Rp2804
sS'robotVQA.3'
p2805
g2712
(g17
S'\x03\x00\x00\x00\x00\x00\x00\x00'
p2806
tp2807
Rp2808
sS'robotVQA.4'
p2809
g2712
(g17
S'\x04\x00\x00\x00\x00\x00\x00\x00'
p2810
tp2811
Rp2812
sS'robotVQA.5'
p2813
g2712
(g17
S'\x05\x00\x00\x00\x00\x00\x00\x00'
p2814
tp2815
Rp2816
sS'robotVQA.6'
p2817
g2712
(g17
S'\x06\x00\x00\x00\x00\x00\x00\x00'
p2818
tp2819
Rp2820
sS'robotVQA.7'
p2821
g2712
(g17
S'\x07\x00\x00\x00\x00\x00\x00\x00'
p2822
tp2823
Rp2824
sS'robotVQA.8'
p2825
g2712
(g17
S'\x08\x00\x00\x00\x00\x00\x00\x00'
p2826
tp2827
Rp2828
sS'robotVQA.9'
p2829
g2712
(g17
S'\t\x00\x00\x00\x00\x00\x00\x00'
p2830
tp2831
Rp2832
sS'.0'
p2833
g2712
(g17
S'\x00\x00\x00\x00\x00\x00\x00\x00'
p2834
tp2835
Rp2836
sS'robotVQA.10'
p2837
g2712
(g17
S'\n\x00\x00\x00\x00\x00\x00\x00'
p2838
tp2839
Rp2840
sS'robotVQA.11'
p2841
g2712
(g17
S'\x0b\x00\x00\x00\x00\x00\x00\x00'
p2842
tp2843
Rp2844
sa(dp2845
S'robotVQA.1'
p2846
g2712
(g17
S'\x01\x00\x00\x00\x00\x00\x00\x00'
p2847
tp2848
Rp2849
sS'robotVQA.2'
p2850
g2712
(g17
S'\x02\x00\x00\x00\x00\x00\x00\x00'
p2851
tp2852
Rp2853
sS'robotVQA.3'
p2854
g2712
(g17
S'\x03\x00\x00\x00\x00\x00\x00\x00'
p2855
tp2856
Rp2857
sS'robotVQA.4'
p2858
g2712
(g17
S'\x04\x00\x00\x00\x00\x00\x00\x00'
p2859
tp2860
Rp2861
sS'robotVQA.5'
p2862
g2712
(g17
S'\x05\x00\x00\x00\x00\x00\x00\x00'
p2863
tp2864
Rp2865
sS'.0'
p2866
g2712
(g17
S'\x00\x00\x00\x00\x00\x00\x00\x00'
p2867
tp2868
Rp2869
sa(dp2870
S'robotVQA.1'
p2871
g2712
(g17
S'\x01\x00\x00\x00\x00\x00\x00\x00'
p2872
tp2873
Rp2874
sS'robotVQA.2'
p2875
g2712
(g17
S'\x02\x00\x00\x00\x00\x00\x00\x00'
p2876
tp2877
Rp2878
sS'robotVQA.3'
p2879
g2712
(g17
S'\x03\x00\x00\x00\x00\x00\x00\x00'
p2880
tp2881
Rp2882
sS'robotVQA.4'
p2883
g2712
(g17
S'\x04\x00\x00\x00\x00\x00\x00\x00'
p2884
tp2885
Rp2886
sS'robotVQA.5'
p2887
g2712
(g17
S'\x05\x00\x00\x00\x00\x00\x00\x00'
p2888
tp2889
Rp2890
sS'robotVQA.6'
p2891
g2712
(g17
S'\x06\x00\x00\x00\x00\x00\x00\x00'
p2892
tp2893
Rp2894
sS'.0'
p2895
g2712
(g17
S'\x00\x00\x00\x00\x00\x00\x00\x00'
p2896
tp2897
Rp2898
sa(dp2899
S'.0'
p2900
g2712
(g17
S'\x00\x00\x00\x00\x00\x00\x00\x00'
p2901
tp2902
Rp2903
sS'robotVQA.1'
p2904
g2712
(g17
S'\x01\x00\x00\x00\x00\x00\x00\x00'
p2905
tp2906
Rp2907
sS'robotVQA.2'
p2908
g2712
(g17
S'\x02\x00\x00\x00\x00\x00\x00\x00'
p2909
tp2910
Rp2911
sa(dp2912
S'.0'
p2913
g2712
(g17
S'\x00\x00\x00\x00\x00\x00\x00\x00'
p2914
tp2915
Rp2916
sS'robotVQA.1'
p2917
g2712
(g17
S'\x01\x00\x00\x00\x00\x00\x00\x00'
p2918
tp2919
Rp2920
sS'robotVQA.2'
p2921
g2712
(g17
S'\x02\x00\x00\x00\x00\x00\x00\x00'
p2922
tp2923
Rp2924
sS'robotVQA.3'
p2925
g2712
(g17
S'\x03\x00\x00\x00\x00\x00\x00\x00'
p2926
tp2927
Rp2928
sS'robotVQA.4'
p2929
g2712
(g17
S'\x04\x00\x00\x00\x00\x00\x00\x00'
p2930
tp2931
Rp2932
sa(dp2933
S'.0'
p2934
g2712
(g17
S'\x00\x00\x00\x00\x00\x00\x00\x00'
p2935
tp2936
Rp2937
sS'robotVQA.1'
p2938
g2712
(g17
S'\x01\x00\x00\x00\x00\x00\x00\x00'
p2939
tp2940
Rp2941
sS'robotVQA.2'
p2942
g2712
(g17
S'\x02\x00\x00\x00\x00\x00\x00\x00'
p2943
tp2944
Rp2945
sS'robotVQA.3'
p2946
g2712
(g17
S'\x03\x00\x00\x00\x00\x00\x00\x00'
p2947
tp2948
Rp2949
sasS'num_classes'
p2950
(lp2951
I21
aI12
aI6
aI7
aI3
aI5
aI4
asb.